	.cpu cortex-m4
	.eabi_attribute 27, 1
	.eabi_attribute 28, 1
	.eabi_attribute 20, 1
	.eabi_attribute 21, 1
	.eabi_attribute 23, 3
	.eabi_attribute 24, 1
	.eabi_attribute 25, 1
	.eabi_attribute 26, 1
	.eabi_attribute 30, 2
	.eabi_attribute 34, 1
	.file	"<artificial>"
	.text
.Ltext0:
	.cfi_sections	.debug_frame
	.section	.text.Dummy_Handler,"ax",%progbits
	.align	1
	.p2align 2,,3
	.arch armv7e-m
	.syntax unified
	.thumb
	.thumb_func
	.fpu fpv4-sp-d16
	.type	Dummy_Handler, %function
Dummy_Handler:
.LFB232:
	.file 1 "/Users/margaret/Github/tinylogicfriend/lib/tinyusb/hw/mcu/microchip/samd51/gcc/gcc/startup_samd51.c"
	.loc 1 677 1 view -0
	.cfi_startproc
	@ Volatile: function does not return.
	@ args = 0, pretend = 0, frame = 0
	@ frame_needed = 0, uses_anonymous_args = 0
	@ link register save eliminated.
.L2:
	.loc 1 678 2 discriminator 1 view .LVU1
	.loc 1 679 2 discriminator 1 view .LVU2
	.loc 1 678 8 discriminator 1 view .LVU3
	b	.L2
	.cfi_endproc
.LFE232:
	.size	Dummy_Handler, .-Dummy_Handler
	.thumb_set OSCCTRL_3_Handler,Dummy_Handler
	.thumb_set OSCCTRL_2_Handler,Dummy_Handler
	.thumb_set OSCCTRL_1_Handler,Dummy_Handler
	.thumb_set OSCCTRL_0_Handler,Dummy_Handler
	.thumb_set MCLK_Handler,Dummy_Handler
	.thumb_set PM_Handler,Dummy_Handler
	.thumb_set SUPC_0_Handler,Dummy_Handler
	.thumb_set PendSV_Handler,Dummy_Handler
	.thumb_set DebugMon_Handler,Dummy_Handler
	.thumb_set SVC_Handler,Dummy_Handler
	.thumb_set UsageFault_Handler,Dummy_Handler
	.thumb_set BusFault_Handler,Dummy_Handler
	.thumb_set MemManage_Handler,Dummy_Handler
	.thumb_set HardFault_Handler,Dummy_Handler
	.thumb_set NMI_Handler,Dummy_Handler
	.thumb_set FREQM_Handler,Dummy_Handler
	.thumb_set NVMCTRL_0_Handler,Dummy_Handler
	.thumb_set NVMCTRL_1_Handler,Dummy_Handler
	.thumb_set DMAC_0_Handler,Dummy_Handler
	.thumb_set DMAC_1_Handler,Dummy_Handler
	.thumb_set DMAC_2_Handler,Dummy_Handler
	.thumb_set DMAC_3_Handler,Dummy_Handler
	.thumb_set DMAC_4_Handler,Dummy_Handler
	.thumb_set EVSYS_0_Handler,Dummy_Handler
	.thumb_set EVSYS_1_Handler,Dummy_Handler
	.thumb_set EVSYS_2_Handler,Dummy_Handler
	.thumb_set EVSYS_3_Handler,Dummy_Handler
	.thumb_set EVSYS_4_Handler,Dummy_Handler
	.thumb_set PAC_Handler,Dummy_Handler
	.thumb_set TAL_0_Handler,Dummy_Handler
	.thumb_set TAL_1_Handler,Dummy_Handler
	.thumb_set RAMECC_Handler,Dummy_Handler
	.thumb_set SERCOM0_0_Handler,Dummy_Handler
	.thumb_set SERCOM0_1_Handler,Dummy_Handler
	.thumb_set SERCOM0_2_Handler,Dummy_Handler
	.thumb_set SERCOM0_3_Handler,Dummy_Handler
	.thumb_set SERCOM1_0_Handler,Dummy_Handler
	.thumb_set SERCOM1_1_Handler,Dummy_Handler
	.thumb_set SERCOM1_2_Handler,Dummy_Handler
	.thumb_set SERCOM1_3_Handler,Dummy_Handler
	.thumb_set SERCOM2_0_Handler,Dummy_Handler
	.thumb_set SERCOM2_1_Handler,Dummy_Handler
	.thumb_set SERCOM2_2_Handler,Dummy_Handler
	.thumb_set SERCOM2_3_Handler,Dummy_Handler
	.thumb_set SERCOM3_0_Handler,Dummy_Handler
	.thumb_set SERCOM3_1_Handler,Dummy_Handler
	.thumb_set SERCOM3_2_Handler,Dummy_Handler
	.thumb_set SERCOM3_3_Handler,Dummy_Handler
	.thumb_set SERCOM4_0_Handler,Dummy_Handler
	.thumb_set SERCOM4_1_Handler,Dummy_Handler
	.thumb_set SERCOM4_2_Handler,Dummy_Handler
	.thumb_set SERCOM4_3_Handler,Dummy_Handler
	.thumb_set SERCOM5_0_Handler,Dummy_Handler
	.thumb_set SERCOM5_1_Handler,Dummy_Handler
	.thumb_set SERCOM5_2_Handler,Dummy_Handler
	.thumb_set SERCOM5_3_Handler,Dummy_Handler
	.thumb_set OSCCTRL_4_Handler,Dummy_Handler
	.thumb_set RTC_Handler,Dummy_Handler
	.thumb_set WDT_Handler,Dummy_Handler
	.thumb_set SUPC_1_Handler,Dummy_Handler
	.thumb_set TCC0_0_Handler,Dummy_Handler
	.thumb_set TCC0_1_Handler,Dummy_Handler
	.thumb_set TCC0_2_Handler,Dummy_Handler
	.thumb_set TCC0_3_Handler,Dummy_Handler
	.thumb_set TCC0_4_Handler,Dummy_Handler
	.thumb_set TCC0_5_Handler,Dummy_Handler
	.thumb_set TCC0_6_Handler,Dummy_Handler
	.thumb_set TCC1_0_Handler,Dummy_Handler
	.thumb_set TCC1_1_Handler,Dummy_Handler
	.thumb_set TCC1_2_Handler,Dummy_Handler
	.thumb_set TCC1_3_Handler,Dummy_Handler
	.thumb_set TCC1_4_Handler,Dummy_Handler
	.thumb_set TCC2_0_Handler,Dummy_Handler
	.thumb_set TCC2_1_Handler,Dummy_Handler
	.thumb_set TCC2_2_Handler,Dummy_Handler
	.thumb_set TCC2_3_Handler,Dummy_Handler
	.thumb_set TCC3_0_Handler,Dummy_Handler
	.thumb_set TCC3_1_Handler,Dummy_Handler
	.thumb_set TCC3_2_Handler,Dummy_Handler
	.thumb_set TCC4_0_Handler,Dummy_Handler
	.thumb_set TCC4_1_Handler,Dummy_Handler
	.thumb_set TCC4_2_Handler,Dummy_Handler
	.thumb_set OSC32KCTRL_Handler,Dummy_Handler
	.thumb_set TC1_Handler,Dummy_Handler
	.thumb_set TC2_Handler,Dummy_Handler
	.thumb_set TC3_Handler,Dummy_Handler
	.thumb_set TC4_Handler,Dummy_Handler
	.thumb_set TC5_Handler,Dummy_Handler
	.thumb_set PDEC_0_Handler,Dummy_Handler
	.thumb_set PDEC_1_Handler,Dummy_Handler
	.thumb_set PDEC_2_Handler,Dummy_Handler
	.thumb_set ADC0_0_Handler,Dummy_Handler
	.thumb_set ADC0_1_Handler,Dummy_Handler
	.thumb_set ADC1_0_Handler,Dummy_Handler
	.thumb_set ADC1_1_Handler,Dummy_Handler
	.thumb_set AC_Handler,Dummy_Handler
	.thumb_set DAC_0_Handler,Dummy_Handler
	.thumb_set DAC_1_Handler,Dummy_Handler
	.thumb_set DAC_2_Handler,Dummy_Handler
	.thumb_set DAC_3_Handler,Dummy_Handler
	.thumb_set DAC_4_Handler,Dummy_Handler
	.thumb_set I2S_Handler,Dummy_Handler
	.thumb_set PCC_Handler,Dummy_Handler
	.thumb_set AES_Handler,Dummy_Handler
	.thumb_set TRNG_Handler,Dummy_Handler
	.thumb_set ICM_Handler,Dummy_Handler
	.thumb_set PUKCC_Handler,Dummy_Handler
	.thumb_set QSPI_Handler,Dummy_Handler
	.thumb_set SDHC0_Handler,Dummy_Handler
	.section	.text.tud_umount_cb,"ax",%progbits
	.align	1
	.p2align 2,,3
	.syntax unified
	.thumb
	.thumb_func
	.fpu fpv4-sp-d16
	.type	tud_umount_cb, %function
tud_umount_cb:
.LFB233:
	.file 2 "src/main.c"
	.loc 2 106 1 view -0
	.cfi_startproc
	@ args = 0, pretend = 0, frame = 0
	@ frame_needed = 0, uses_anonymous_args = 0
	@ link register save eliminated.
	.loc 2 107 3 view .LVU5
	.loc 2 108 1 is_stmt 0 view .LVU6
	bx	lr
	.cfi_endproc
.LFE233:
	.size	tud_umount_cb, .-tud_umount_cb
	.section	.text.tud_suspend_cb,"ax",%progbits
	.align	1
	.p2align 2,,3
	.syntax unified
	.thumb
	.thumb_func
	.fpu fpv4-sp-d16
	.type	tud_suspend_cb, %function
tud_suspend_cb:
.LVL0:
.LFB235:
	.loc 2 114 1 is_stmt 1 view -0
	.cfi_startproc
	@ args = 0, pretend = 0, frame = 0
	@ frame_needed = 0, uses_anonymous_args = 0
	@ link register save eliminated.
	.loc 2 115 3 view .LVU8
	.loc 2 116 3 view .LVU9
	.loc 2 117 1 is_stmt 0 view .LVU10
	bx	lr
	.cfi_endproc
.LFE235:
	.size	tud_suspend_cb, .-tud_suspend_cb
	.section	.text.SysTick_Handler,"ax",%progbits
	.align	1
	.p2align 2,,3
	.syntax unified
	.thumb
	.thumb_func
	.fpu fpv4-sp-d16
	.type	SysTick_Handler, %function
SysTick_Handler:
.LFB237:
	.file 3 "/Users/margaret/Github/tinylogicfriend/lib/tinyusb/hw/bsp/samd51/family.c"
	.loc 3 154 1 is_stmt 1 view -0
	.cfi_startproc
	@ args = 0, pretend = 0, frame = 0
	@ frame_needed = 0, uses_anonymous_args = 0
	@ link register save eliminated.
	.loc 3 155 3 view .LVU12
	.loc 3 155 15 is_stmt 0 view .LVU13
	ldr	r2, .L7
	ldr	r3, [r2]
	adds	r3, r3, #1
	str	r3, [r2]
	.loc 3 156 1 view .LVU14
	bx	lr
.L8:
	.align	2
.L7:
	.word	.LANCHOR0
	.cfi_endproc
.LFE237:
	.size	SysTick_Handler, .-SysTick_Handler
	.section	.text.TC0_Handler,"ax",%progbits
	.align	1
	.p2align 2,,3
	.syntax unified
	.thumb
	.thumb_func
	.fpu fpv4-sp-d16
	.type	TC0_Handler, %function
TC0_Handler:
.LFB238:
	.file 4 "src/mcu/microchip/samd51/logic_capture.c"
	.loc 4 80 24 is_stmt 1 view -0
	.cfi_startproc
	@ args = 0, pretend = 0, frame = 0
	@ frame_needed = 0, uses_anonymous_args = 0
	@ link register save eliminated.
	.loc 4 82 5 view .LVU16
	.loc 4 80 24 is_stmt 0 view .LVU17
	push	{r4}
	.cfi_def_cfa_offset 4
	.cfi_offset 4, -4
	.loc 4 82 30 view .LVU18
	ldr	r3, .L11
	.loc 4 85 15 view .LVU19
	ldr	r2, .L11+4
	.loc 4 83 41 view .LVU20
	ldr	r0, .L11+8
	.loc 4 82 30 view .LVU21
	movs	r1, #1
	strb	r1, [r3, #10]
	.loc 4 83 5 is_stmt 1 view .LVU22
	.loc 4 85 15 is_stmt 0 view .LVU23
	ldrh	r3, [r2]
	.loc 4 85 31 view .LVU24
	ldr	r1, .L11+12
	.loc 4 83 41 view .LVU25
	ldr	r4, [r0, #56]
.LVL1:
	.loc 4 85 5 is_stmt 1 view .LVU26
	.loc 4 85 31 is_stmt 0 view .LVU27
	movw	r0, #65535
	strh	r0, [r1, r3, lsl #1]	@ movhi
	.loc 4 86 5 is_stmt 1 view .LVU28
	.loc 4 86 30 is_stmt 0 view .LVU29
	ldr	r0, .L11+16
	.loc 4 88 19 view .LVU30
	adds	r1, r3, #1
	.loc 4 83 20 view .LVU31
	strh	r4, [r0, r3, lsl #1]	@ movhi
	.loc 4 88 5 is_stmt 1 view .LVU32
	.loc 4 88 19 is_stmt 0 view .LVU33
	strh	r1, [r2]	@ movhi
	.loc 4 90 1 view .LVU34
	ldr	r4, [sp], #4
	.cfi_restore 4
	.cfi_def_cfa_offset 0
.LVL2:
	.loc 4 90 1 view .LVU35
	bx	lr
.L12:
	.align	2
.L11:
	.word	1073756160
	.word	.LANCHOR1
	.word	1073752064
	.word	timestamps
	.word	values
	.cfi_endproc
.LFE238:
	.size	TC0_Handler, .-TC0_Handler
	.section	.text.tud_resume_cb,"ax",%progbits
	.align	1
	.p2align 2,,3
	.syntax unified
	.thumb
	.thumb_func
	.fpu fpv4-sp-d16
	.type	tud_resume_cb, %function
tud_resume_cb:
.LFB239:
	.cfi_startproc
	@ args = 0, pretend = 0, frame = 0
	@ frame_needed = 0, uses_anonymous_args = 0
	@ link register save eliminated.
	bx	lr
	.cfi_endproc
.LFE239:
	.size	tud_resume_cb, .-tud_resume_cb
	.section	.text.SCPI_Flush,"ax",%progbits
	.align	1
	.p2align 2,,3
	.syntax unified
	.thumb
	.thumb_func
	.fpu fpv4-sp-d16
	.type	SCPI_Flush, %function
SCPI_Flush:
.LVL3:
.LFB241:
	.file 5 "src/scpi_parser.c"
	.loc 5 70 44 is_stmt 1 view -0
	.cfi_startproc
	@ args = 0, pretend = 0, frame = 0
	@ frame_needed = 0, uses_anonymous_args = 0
	@ link register save eliminated.
	.loc 5 71 5 view .LVU37
	.loc 5 73 5 view .LVU38
	.loc 5 74 1 is_stmt 0 view .LVU39
	movs	r0, #1
.LVL4:
	.loc 5 74 1 view .LVU40
	bx	lr
	.cfi_endproc
.LFE241:
	.size	SCPI_Flush, .-SCPI_Flush
	.section	.text.tud_usbtmc_msg_trigger_cb,"ax",%progbits
	.align	1
	.p2align 2,,3
	.syntax unified
	.thumb
	.thumb_func
	.fpu fpv4-sp-d16
	.type	tud_usbtmc_msg_trigger_cb, %function
tud_usbtmc_msg_trigger_cb:
.LVL5:
.LFB243:
	.file 6 "src/usbtmc_app.c"
	.loc 6 124 59 is_stmt 1 view -0
	.cfi_startproc
	@ args = 0, pretend = 0, frame = 0
	@ frame_needed = 0, uses_anonymous_args = 0
	@ link register save eliminated.
	.loc 6 125 3 view .LVU42
	.loc 6 127 3 view .LVU43
	.loc 6 127 10 is_stmt 0 view .LVU44
	ldr	r2, .L16
	ldrb	r3, [r2]	@ zero_extendqisi2
	orr	r3, r3, #64
	.loc 6 129 1 view .LVU45
	movs	r0, #1
.LVL6:
	.loc 6 127 10 view .LVU46
	strb	r3, [r2]
	.loc 6 128 3 is_stmt 1 view .LVU47
	.loc 6 129 1 is_stmt 0 view .LVU48
	bx	lr
.L17:
	.align	2
.L16:
	.word	.LANCHOR2
	.cfi_endproc
.LFE243:
	.size	tud_usbtmc_msg_trigger_cb, .-tud_usbtmc_msg_trigger_cb
	.section	.text.tud_usbtmc_indicator_pulse_cb,"ax",%progbits
	.align	1
	.p2align 2,,3
	.syntax unified
	.thumb
	.thumb_func
	.fpu fpv4-sp-d16
	.type	tud_usbtmc_indicator_pulse_cb, %function
tud_usbtmc_indicator_pulse_cb:
.LVL7:
.LFB245:
	.loc 6 394 1 is_stmt 1 view -0
	.cfi_startproc
	@ args = 0, pretend = 0, frame = 0
	@ frame_needed = 0, uses_anonymous_args = 0
	@ link register save eliminated.
	.loc 6 395 3 view .LVU50
	.loc 6 396 3 view .LVU51
.LBB335:
.LBI335:
	.loc 2 203 6 view .LVU52
.LBB336:
	.loc 2 204 2 view .LVU53
	.loc 2 204 10 is_stmt 0 view .LVU54
	ldr	r3, .L19
	movs	r0, #1
.LVL8:
	.loc 2 204 10 view .LVU55
	strb	r0, [r3]
.LBE336:
.LBE335:
	.loc 6 397 3 is_stmt 1 view .LVU56
	.loc 6 397 14 is_stmt 0 view .LVU57
	strb	r0, [r1]
	.loc 6 398 3 is_stmt 1 view .LVU58
	.loc 6 399 1 is_stmt 0 view .LVU59
	bx	lr
.L20:
	.align	2
.L19:
	.word	.LANCHOR3
	.cfi_endproc
.LFE245:
	.size	tud_usbtmc_indicator_pulse_cb, .-tud_usbtmc_indicator_pulse_cb
	.section	.rodata.SCPI_ErrorTranslate.str1.4,"aMS",%progbits,1
	.align	2
.LC0:
	.ascii	"Unknown error\000"
	.align	2
.LC1:
	.ascii	"Execution error\000"
	.align	2
.LC2:
	.ascii	"Invalid separator\000"
	.align	2
.LC3:
	.ascii	"Data type error\000"
	.align	2
.LC4:
	.ascii	"Parameter not allowed\000"
	.align	2
.LC5:
	.ascii	"Missing parameter\000"
	.align	2
.LC6:
	.ascii	"Undefined header\000"
	.align	2
.LC7:
	.ascii	"Invalid suffix\000"
	.align	2
.LC8:
	.ascii	"Suffix not allowed\000"
	.align	2
.LC9:
	.ascii	"Invalid string data\000"
	.align	2
.LC10:
	.ascii	"Expression error\000"
	.align	2
.LC11:
	.ascii	"Illegal parameter value\000"
	.align	2
.LC12:
	.ascii	"Invalid character\000"
	.align	2
.LC13:
	.ascii	"Queue overflow\000"
	.align	2
.LC14:
	.ascii	"Input buffer overrun\000"
	.align	2
.LC15:
	.ascii	"System error\000"
	.align	2
.LC16:
	.ascii	"No error\000"
	.section	.text.SCPI_ErrorTranslate,"ax",%progbits
	.align	1
	.p2align 2,,3
	.syntax unified
	.thumb
	.thumb_func
	.fpu fpv4-sp-d16
	.type	SCPI_ErrorTranslate, %function
SCPI_ErrorTranslate:
.LVL9:
.LFB248:
	.file 7 "/Users/margaret/Github/tinylogicfriend/lib/tinyusb/lib/libscpi/src/error.c"
	.loc 7 215 47 is_stmt 1 view -0
	.cfi_startproc
	@ args = 0, pretend = 0, frame = 0
	@ frame_needed = 0, uses_anonymous_args = 0
	@ link register save eliminated.
	.loc 7 216 5 view .LVU61
	cmn	r0, #100
	bge	.L22
	cmn	r0, #170
	blt	.L44
	adds	r0, r0, #170
.LVL10:
	.loc 7 216 5 is_stmt 0 view .LVU62
	cmp	r0, #69
	bhi	.L26
	tbb	[pc, r0]
.L28:
	.byte	(.L36-.L28)/2
	.byte	(.L26-.L28)/2
	.byte	(.L26-.L28)/2
	.byte	(.L26-.L28)/2
	.byte	(.L26-.L28)/2
	.byte	(.L26-.L28)/2
	.byte	(.L26-.L28)/2
	.byte	(.L26-.L28)/2
	.byte	(.L26-.L28)/2
	.byte	(.L26-.L28)/2
	.byte	(.L26-.L28)/2
	.byte	(.L26-.L28)/2
	.byte	(.L26-.L28)/2
	.byte	(.L26-.L28)/2
	.byte	(.L26-.L28)/2
	.byte	(.L26-.L28)/2
	.byte	(.L26-.L28)/2
	.byte	(.L26-.L28)/2
	.byte	(.L26-.L28)/2
	.byte	(.L35-.L28)/2
	.byte	(.L26-.L28)/2
	.byte	(.L26-.L28)/2
	.byte	(.L26-.L28)/2
	.byte	(.L26-.L28)/2
	.byte	(.L26-.L28)/2
	.byte	(.L26-.L28)/2
	.byte	(.L26-.L28)/2
	.byte	(.L26-.L28)/2
	.byte	(.L26-.L28)/2
	.byte	(.L26-.L28)/2
	.byte	(.L26-.L28)/2
	.byte	(.L26-.L28)/2
	.byte	(.L34-.L28)/2
	.byte	(.L26-.L28)/2
	.byte	(.L26-.L28)/2
	.byte	(.L26-.L28)/2
	.byte	(.L26-.L28)/2
	.byte	(.L26-.L28)/2
	.byte	(.L26-.L28)/2
	.byte	(.L33-.L28)/2
	.byte	(.L26-.L28)/2
	.byte	(.L26-.L28)/2
	.byte	(.L26-.L28)/2
	.byte	(.L26-.L28)/2
	.byte	(.L26-.L28)/2
	.byte	(.L26-.L28)/2
	.byte	(.L26-.L28)/2
	.byte	(.L26-.L28)/2
	.byte	(.L26-.L28)/2
	.byte	(.L26-.L28)/2
	.byte	(.L26-.L28)/2
	.byte	(.L26-.L28)/2
	.byte	(.L26-.L28)/2
	.byte	(.L26-.L28)/2
	.byte	(.L26-.L28)/2
	.byte	(.L26-.L28)/2
	.byte	(.L26-.L28)/2
	.byte	(.L32-.L28)/2
	.byte	(.L26-.L28)/2
	.byte	(.L26-.L28)/2
	.byte	(.L26-.L28)/2
	.byte	(.L31-.L28)/2
	.byte	(.L30-.L28)/2
	.byte	(.L26-.L28)/2
	.byte	(.L26-.L28)/2
	.byte	(.L26-.L28)/2
	.byte	(.L29-.L28)/2
	.byte	(.L40-.L28)/2
	.byte	(.L26-.L28)/2
	.byte	(.L27-.L28)/2
	.p2align 1
.L26:
	.loc 7 230 25 view .LVU63
	ldr	r3, .L46
.L21:
	.loc 7 232 1 view .LVU64
	mov	r0, r3
	bx	lr
.LVL11:
.L44:
	.loc 7 216 5 view .LVU65
	cmn	r0, #310
	beq	.L37
	ble	.L45
	cmn	r0, #224
	beq	.L41
	.loc 7 223 9 view .LVU66
	ldr	r2, .L46+4
	ldr	r3, .L46
	cmn	r0, #200
	it	eq
	moveq	r3, r2
	.loc 7 232 1 view .LVU67
	mov	r0, r3
.LVL12:
	.loc 7 232 1 view .LVU68
	bx	lr
.LVL13:
.L22:
	.loc 7 223 9 view .LVU69
	ldr	r3, .L46
	ldr	r2, .L46+8
	cmp	r0, #0
	it	eq
	moveq	r3, r2
	b	.L21
.L45:
	.loc 7 216 5 view .LVU70
	mvn	r3, #362
	cmp	r0, r3
	beq	.L38
	.loc 7 223 9 view .LVU71
	ldr	r2, .L46+12
	ldr	r3, .L46
	cmn	r0, #350
	it	eq
	moveq	r3, r2
	b	.L21
.L38:
	ldr	r3, .L46+16
	b	.L21
.L41:
	ldr	r3, .L46+20
	b	.L21
.LVL14:
.L29:
	.loc 7 223 9 is_stmt 1 view .LVU72
	ldr	r3, .L46+24
	b	.L21
.L36:
	.loc 7 223 9 view .LVU73
	ldr	r3, .L46+28
	b	.L21
.L35:
	.loc 7 223 9 view .LVU74
	ldr	r3, .L46+32
	b	.L21
.L34:
	.loc 7 223 9 view .LVU75
	ldr	r3, .L46+36
	b	.L21
.L33:
	.loc 7 223 9 view .LVU76
	ldr	r3, .L46+40
	b	.L21
.L32:
	.loc 7 223 9 view .LVU77
	ldr	r3, .L46+44
	b	.L21
.L31:
	.loc 7 223 9 view .LVU78
	ldr	r3, .L46+48
	b	.L21
.L30:
	.loc 7 223 9 view .LVU79
	ldr	r3, .L46+52
	b	.L21
.LVL15:
.L37:
	.loc 7 223 9 is_stmt 0 view .LVU80
	ldr	r3, .L46+56
	b	.L21
.LVL16:
.L40:
	.loc 7 223 9 view .LVU81
	ldr	r3, .L46+60
	b	.L21
.L27:
	.loc 7 216 5 view .LVU82
	ldr	r3, .L46+64
	b	.L21
.L47:
	.align	2
.L46:
	.word	.LC0
	.word	.LC1
	.word	.LC16
	.word	.LC13
	.word	.LC14
	.word	.LC11
	.word	.LC3
	.word	.LC10
	.word	.LC9
	.word	.LC8
	.word	.LC7
	.word	.LC6
	.word	.LC5
	.word	.LC4
	.word	.LC15
	.word	.LC2
	.word	.LC12
	.cfi_endproc
.LFE248:
	.size	SCPI_ErrorTranslate, .-SCPI_ErrorTranslate
	.section	.text.regUpdateSTB,"ax",%progbits
	.align	1
	.p2align 2,,3
	.syntax unified
	.thumb
	.thumb_func
	.fpu fpv4-sp-d16
	.type	regUpdateSTB, %function
regUpdateSTB:
.LVL17:
.LFB249:
	.file 8 "/Users/margaret/Github/tinylogicfriend/lib/tinyusb/lib/libscpi/src/ieee488.c"
	.loc 8 72 110 is_stmt 1 view -0
	.cfi_startproc
	@ args = 0, pretend = 0, frame = 0
	@ frame_needed = 0, uses_anonymous_args = 0
	@ link register save eliminated.
	.loc 8 73 5 view .LVU84
.LBB351:
.LBI351:
	.loc 8 85 16 view .LVU85
.LBB352:
	.loc 8 86 5 view .LVU86
	.loc 8 86 33 is_stmt 0 view .LVU87
	cbz	r0, .L48
	.loc 8 87 9 is_stmt 1 view .LVU88
.LVL18:
	.loc 8 87 34 is_stmt 0 view .LVU89
	adds	r2, r2, #36
.LVL19:
	.loc 8 87 34 view .LVU90
.LBE352:
.LBE351:
	.loc 8 73 9 view .LVU91
	ldrh	r2, [r0, r2, lsl #1]
	.loc 8 73 8 view .LVU92
	ands	r1, r1, r2
.LVL20:
.LBB353:
.LBB354:
	.loc 8 190 5 view .LVU93
	ldrh	r2, [r0, #72]
.LBE354:
.LBE353:
	.loc 8 73 8 view .LVU94
	beq	.L50
.LVL21:
.LBB360:
.LBB359:
.LBB355:
.LBB356:
	.loc 8 87 9 is_stmt 1 view .LVU95
	.loc 8 87 9 is_stmt 0 view .LVU96
.LBE356:
.LBE355:
.LBB357:
.LBI357:
	.loc 8 112 6 is_stmt 1 view .LVU97
.LBB358:
	.loc 8 113 5 view .LVU98
	.loc 8 114 5 view .LVU99
	.loc 8 115 5 view .LVU100
	.loc 8 117 5 view .LVU101
	.loc 8 117 5 is_stmt 0 view .LVU102
	movs	r1, #0
	orrs	r2, r2, r3
	b	SCPI_RegSet.part.0
.LVL22:
.L50:
	.loc 8 117 5 view .LVU103
.LBE358:
.LBE357:
.LBE359:
.LBE360:
	.loc 8 76 9 is_stmt 1 view .LVU104
.LBB361:
.LBI361:
	.loc 8 198 6 view .LVU105
.LBB362:
.LBB363:
.LBI363:
	.loc 8 112 6 view .LVU106
.LBB364:
	.loc 8 113 5 view .LVU107
	.loc 8 114 5 view .LVU108
	.loc 8 115 5 view .LVU109
	.loc 8 117 5 view .LVU110
	.loc 8 117 5 is_stmt 0 view .LVU111
	bic	r2, r2, r3
	b	SCPI_RegSet.part.0
.LVL23:
.L48:
	.loc 8 117 5 view .LVU112
.LBE364:
.LBE363:
.LBE362:
.LBE361:
	.loc 8 78 1 view .LVU113
	bx	lr
	.cfi_endproc
.LFE249:
	.size	regUpdateSTB, .-regUpdateSTB
	.section	.text.SCPI_RegSet.part.0,"ax",%progbits
	.align	1
	.p2align 2,,3
	.syntax unified
	.thumb
	.thumb_func
	.fpu fpv4-sp-d16
	.type	SCPI_RegSet.part.0, %function
SCPI_RegSet.part.0:
.LVL24:
.LFB252:
	.loc 8 112 6 is_stmt 1 view -0
	.cfi_startproc
	@ args = 0, pretend = 0, frame = 0
	@ frame_needed = 0, uses_anonymous_args = 0
	.loc 8 122 5 view .LVU115
	.loc 8 112 6 is_stmt 0 view .LVU116
	push	{r4, r5, r6, lr}
	.cfi_def_cfa_offset 16
	.cfi_offset 4, -16
	.cfi_offset 5, -12
	.cfi_offset 6, -8
	.cfi_offset 14, -4
	add	r3, r0, r1, lsl #1
	subs	r1, r1, #1
.LVL25:
	.loc 8 112 6 view .LVU117
	mov	r4, r0
	mov	r5, r2
	.loc 8 122 13 view .LVU118
	ldrh	r0, [r3, #72]
.LVL26:
	.loc 8 125 5 is_stmt 1 view .LVU119
	.loc 8 125 30 is_stmt 0 view .LVU120
	strh	r2, [r3, #72]	@ movhi
	.loc 8 128 5 is_stmt 1 view .LVU121
	cmp	r1, #8
	bhi	.L52
	tbb	[pc, r1]
.LVL27:
.L54:
	.byte	(.L62-.L54)/2
	.byte	(.L61-.L54)/2
	.byte	(.L60-.L54)/2
	.byte	(.L59-.L54)/2
	.byte	(.L58-.L54)/2
	.byte	(.L57-.L54)/2
	.byte	(.L56-.L54)/2
	.byte	(.L55-.L54)/2
	.byte	(.L53-.L54)/2
	.p2align 1
.L53:
	.loc 8 158 13 view .LVU122
.LBB411:
.LBI411:
	.loc 8 61 13 view .LVU123
.LBB412:
	.loc 8 62 5 view .LVU124
.LBB413:
.LBI413:
	.loc 8 85 16 view .LVU125
.LBB414:
	.loc 8 86 5 view .LVU126
	.loc 8 87 9 view .LVU127
	.loc 8 87 9 is_stmt 0 view .LVU128
.LBE414:
.LBE413:
.LBB415:
.LBI415:
	.loc 8 112 6 is_stmt 1 view .LVU129
.LBB416:
	.loc 8 113 5 view .LVU130
	.loc 8 114 5 view .LVU131
	.loc 8 115 5 view .LVU132
	.loc 8 117 5 view .LVU133
	.loc 8 117 5 is_stmt 0 view .LVU134
.LBE416:
.LBE415:
	.loc 8 62 5 view .LVU135
	ldrh	r2, [r4, #86]
	bic	r0, r5, r0
.LVL28:
.LBB418:
.LBB417:
	.loc 8 62 5 view .LVU136
	orrs	r2, r2, r0
	movs	r1, #7
	mov	r0, r4
	bl	SCPI_RegSet.part.0
.LVL29:
	.loc 8 62 5 view .LVU137
.LBE417:
.LBE418:
.LBE412:
.LBE411:
	.loc 8 177 5 is_stmt 1 view .LVU138
	.loc 8 177 30 is_stmt 0 view .LVU139
	strh	r5, [r4, #90]	@ movhi
	.loc 8 179 5 is_stmt 1 view .LVU140
.LVL30:
.L51:
	.loc 8 182 1 is_stmt 0 view .LVU141
	pop	{r4, r5, r6, pc}
.LVL31:
.L61:
	.loc 8 146 13 is_stmt 1 view .LVU142
	movs	r3, #32
.LVL32:
	.loc 8 146 13 is_stmt 0 view .LVU143
	movs	r2, #3
	mov	r1, r5
.LVL33:
	.loc 8 146 13 view .LVU144
	mov	r0, r4
.LVL34:
	.loc 8 146 13 view .LVU145
	bl	regUpdateSTB
.LVL35:
	.loc 8 147 13 is_stmt 1 view .LVU146
	.loc 8 177 5 view .LVU147
	.loc 8 177 30 is_stmt 0 view .LVU148
	strh	r5, [r4, #76]	@ movhi
	.loc 8 179 5 is_stmt 1 view .LVU149
	.loc 8 182 1 is_stmt 0 view .LVU150
	pop	{r4, r5, r6, pc}
.LVL36:
.L57:
	.loc 8 167 13 is_stmt 1 view .LVU151
.LBB419:
.LBI419:
	.loc 8 61 13 view .LVU152
.LBB420:
	.loc 8 62 5 view .LVU153
.LBB421:
.LBI421:
	.loc 8 85 16 view .LVU154
.LBB422:
	.loc 8 86 5 view .LVU155
	.loc 8 87 9 view .LVU156
	.loc 8 87 9 is_stmt 0 view .LVU157
.LBE422:
.LBE421:
.LBB423:
.LBI423:
	.loc 8 112 6 is_stmt 1 view .LVU158
.LBB424:
	.loc 8 113 5 view .LVU159
	.loc 8 114 5 view .LVU160
	.loc 8 115 5 view .LVU161
	.loc 8 117 5 view .LVU162
	.loc 8 117 5 is_stmt 0 view .LVU163
.LBE424:
.LBE423:
	.loc 8 62 5 view .LVU164
	ldrh	r2, [r4, #80]
	bic	r0, r5, r0
.LVL37:
.LBB426:
.LBB425:
	.loc 8 62 5 view .LVU165
	orrs	r2, r2, r0
	movs	r1, #4
	mov	r0, r4
	bl	SCPI_RegSet.part.0
.LVL38:
	.loc 8 62 5 view .LVU166
.LBE425:
.LBE426:
.LBE420:
.LBE419:
	.loc 8 177 5 is_stmt 1 view .LVU167
	.loc 8 177 30 is_stmt 0 view .LVU168
	strh	r5, [r4, #84]	@ movhi
	.loc 8 179 5 is_stmt 1 view .LVU169
	.loc 8 182 1 is_stmt 0 view .LVU170
	pop	{r4, r5, r6, pc}
.LVL39:
.L56:
	.loc 8 152 13 is_stmt 1 view .LVU171
	movs	r3, #8
.LVL40:
	.loc 8 152 13 is_stmt 0 view .LVU172
	mov	r2, r3
	mov	r1, r5
.LVL41:
	.loc 8 152 13 view .LVU173
	mov	r0, r4
.LVL42:
	.loc 8 152 13 view .LVU174
	bl	regUpdateSTB
.LVL43:
	.loc 8 153 13 is_stmt 1 view .LVU175
	.loc 8 177 5 view .LVU176
	.loc 8 177 30 is_stmt 0 view .LVU177
	strh	r5, [r4, #86]	@ movhi
	.loc 8 179 5 is_stmt 1 view .LVU178
	.loc 8 182 1 is_stmt 0 view .LVU179
	pop	{r4, r5, r6, pc}
.LVL44:
.L59:
	.loc 8 161 13 is_stmt 1 view .LVU180
	movs	r3, #128
.LVL45:
	.loc 8 161 13 is_stmt 0 view .LVU181
	movs	r2, #5
	mov	r1, r5
.LVL46:
	.loc 8 161 13 view .LVU182
	mov	r0, r4
.LVL47:
	.loc 8 161 13 view .LVU183
	bl	regUpdateSTB
.LVL48:
	.loc 8 162 13 is_stmt 1 view .LVU184
	.loc 8 177 5 view .LVU185
	.loc 8 177 30 is_stmt 0 view .LVU186
	strh	r5, [r4, #80]	@ movhi
	.loc 8 179 5 is_stmt 1 view .LVU187
	.loc 8 182 1 is_stmt 0 view .LVU188
	pop	{r4, r5, r6, pc}
.LVL49:
.L62:
	.loc 8 143 13 is_stmt 1 view .LVU189
.LBB427:
.LBI427:
	.loc 8 50 13 view .LVU190
.LBE427:
	.loc 8 51 5 view .LVU191
.LBB432:
.LBB428:
.LBI428:
	.loc 8 85 16 view .LVU192
.LBB429:
	.loc 8 86 5 view .LVU193
	.loc 8 87 9 view .LVU194
	.loc 8 87 9 is_stmt 0 view .LVU195
.LBE429:
.LBE428:
.LBB430:
.LBI430:
	.loc 8 112 6 is_stmt 1 view .LVU196
.LBB431:
	.loc 8 113 5 view .LVU197
	.loc 8 114 5 view .LVU198
	.loc 8 115 5 view .LVU199
	.loc 8 117 5 view .LVU200
	.loc 8 117 5 is_stmt 0 view .LVU201
	ldrh	r2, [r4, #72]
	movs	r1, #0
	mov	r0, r4
.LVL50:
	.loc 8 117 5 view .LVU202
	bl	SCPI_RegSet.part.0
.LVL51:
	.loc 8 117 5 view .LVU203
.LBE431:
.LBE430:
.LBE432:
	.loc 8 177 5 is_stmt 1 view .LVU204
	.loc 8 177 30 is_stmt 0 view .LVU205
	strh	r5, [r4, #74]	@ movhi
	.loc 8 179 5 is_stmt 1 view .LVU206
	.loc 8 182 1 is_stmt 0 view .LVU207
	pop	{r4, r5, r6, pc}
.LVL52:
.L58:
	.loc 8 164 13 is_stmt 1 view .LVU208
.LBB433:
.LBI433:
	.loc 8 50 13 view .LVU209
.LBE433:
	.loc 8 51 5 view .LVU210
.LBB438:
.LBB434:
.LBI434:
	.loc 8 85 16 view .LVU211
.LBB435:
	.loc 8 86 5 view .LVU212
	.loc 8 87 9 view .LVU213
	.loc 8 87 9 is_stmt 0 view .LVU214
.LBE435:
.LBE434:
.LBB436:
.LBI436:
	.loc 8 112 6 is_stmt 1 view .LVU215
.LBB437:
	.loc 8 113 5 view .LVU216
	.loc 8 114 5 view .LVU217
	.loc 8 115 5 view .LVU218
	.loc 8 117 5 view .LVU219
	.loc 8 117 5 is_stmt 0 view .LVU220
	ldrh	r2, [r4, #80]
	movs	r1, #4
	mov	r0, r4
.LVL53:
	.loc 8 117 5 view .LVU221
	bl	SCPI_RegSet.part.0
.LVL54:
	.loc 8 117 5 view .LVU222
.LBE437:
.LBE436:
.LBE438:
	.loc 8 177 5 is_stmt 1 view .LVU223
	.loc 8 177 30 is_stmt 0 view .LVU224
	strh	r5, [r4, #82]	@ movhi
	.loc 8 179 5 is_stmt 1 view .LVU225
	.loc 8 182 1 is_stmt 0 view .LVU226
	pop	{r4, r5, r6, pc}
.LVL55:
.L55:
	.loc 8 155 13 is_stmt 1 view .LVU227
.LBB439:
.LBI439:
	.loc 8 50 13 view .LVU228
.LBE439:
	.loc 8 51 5 view .LVU229
.LBB444:
.LBB440:
.LBI440:
	.loc 8 85 16 view .LVU230
.LBB441:
	.loc 8 86 5 view .LVU231
	.loc 8 87 9 view .LVU232
	.loc 8 87 9 is_stmt 0 view .LVU233
.LBE441:
.LBE440:
.LBB442:
.LBI442:
	.loc 8 112 6 is_stmt 1 view .LVU234
.LBB443:
	.loc 8 113 5 view .LVU235
	.loc 8 114 5 view .LVU236
	.loc 8 115 5 view .LVU237
	.loc 8 117 5 view .LVU238
	.loc 8 117 5 is_stmt 0 view .LVU239
	ldrh	r2, [r4, #86]
	movs	r1, #7
	mov	r0, r4
.LVL56:
	.loc 8 117 5 view .LVU240
	bl	SCPI_RegSet.part.0
.LVL57:
	.loc 8 117 5 view .LVU241
.LBE443:
.LBE442:
.LBE444:
	.loc 8 177 5 is_stmt 1 view .LVU242
	.loc 8 177 30 is_stmt 0 view .LVU243
	strh	r5, [r4, #88]	@ movhi
	.loc 8 179 5 is_stmt 1 view .LVU244
	.loc 8 182 1 is_stmt 0 view .LVU245
	pop	{r4, r5, r6, pc}
.LVL58:
.L60:
	.loc 8 149 13 is_stmt 1 view .LVU246
.LBB445:
.LBI445:
	.loc 8 50 13 view .LVU247
.LBE445:
	.loc 8 51 5 view .LVU248
.LBB450:
.LBB446:
.LBI446:
	.loc 8 85 16 view .LVU249
.LBB447:
	.loc 8 86 5 view .LVU250
	.loc 8 87 9 view .LVU251
	.loc 8 87 9 is_stmt 0 view .LVU252
.LBE447:
.LBE446:
.LBB448:
.LBI448:
	.loc 8 112 6 is_stmt 1 view .LVU253
.LBB449:
	.loc 8 113 5 view .LVU254
	.loc 8 114 5 view .LVU255
	.loc 8 115 5 view .LVU256
	.loc 8 117 5 view .LVU257
	.loc 8 117 5 is_stmt 0 view .LVU258
	ldrh	r2, [r4, #76]
	movs	r1, #2
	mov	r0, r4
.LVL59:
	.loc 8 117 5 view .LVU259
	bl	SCPI_RegSet.part.0
.LVL60:
	.loc 8 117 5 view .LVU260
.LBE449:
.LBE448:
.LBE450:
	.loc 8 177 5 is_stmt 1 view .LVU261
	.loc 8 177 30 is_stmt 0 view .LVU262
	strh	r5, [r4, #78]	@ movhi
	.loc 8 179 5 is_stmt 1 view .LVU263
	.loc 8 182 1 is_stmt 0 view .LVU264
	pop	{r4, r5, r6, pc}
.LVL61:
.L52:
	.loc 8 130 13 is_stmt 1 view .LVU265
.LBB451:
.LBI451:
	.loc 8 85 16 view .LVU266
.LBB452:
	.loc 8 86 5 view .LVU267
	.loc 8 87 9 view .LVU268
	.loc 8 87 9 is_stmt 0 view .LVU269
.LBE452:
.LBE451:
	.loc 8 131 13 is_stmt 1 view .LVU270
	.loc 8 132 13 view .LVU271
	.loc 8 132 17 is_stmt 0 view .LVU272
	ldrh	r2, [r4, #74]
	ands	r2, r2, r5
	bic	r2, r2, #64
	.loc 8 132 16 view .LVU273
	cbz	r2, .L63
	.loc 8 133 17 is_stmt 1 view .LVU274
	.loc 8 133 21 is_stmt 0 view .LVU275
	orr	r5, r5, #64
.LVL62:
	.loc 8 135 17 is_stmt 1 view .LVU276
	.loc 8 135 20 is_stmt 0 view .LVU277
	cmp	r0, r5
	beq	.L73
	.loc 8 136 21 is_stmt 1 view .LVU278
.LVL63:
	.loc 8 177 5 view .LVU279
	.loc 8 177 30 is_stmt 0 view .LVU280
	strh	r5, [r3, #72]	@ movhi
.LVL64:
	.loc 8 179 5 is_stmt 1 view .LVU281
	.loc 8 180 9 view .LVU282
.LBB453:
.LBI453:
	.loc 8 85 16 view .LVU283
.LBB454:
	.loc 8 86 5 view .LVU284
	.loc 8 87 9 view .LVU285
	.loc 8 87 9 is_stmt 0 view .LVU286
.LBE454:
.LBE453:
.LBB455:
.LBI455:
	.loc 8 99 15 is_stmt 1 view .LVU287
.LBB456:
	.loc 8 100 27 is_stmt 0 view .LVU288
	ldr	r3, [r4, #44]
	.loc 8 100 17 view .LVU289
	cmp	r3, #0
	beq	.L51
	.loc 8 100 60 view .LVU290
	ldr	r3, [r3, #8]
	.loc 8 100 39 view .LVU291
	cmp	r3, #0
	beq	.L51
	.loc 8 101 16 view .LVU292
	ldrh	r2, [r4, #72]
	mov	r0, r4
.LVL65:
	.loc 8 101 16 view .LVU293
	movs	r1, #1
.LBE456:
.LBE455:
	.loc 8 182 1 view .LVU294
	pop	{r4, r5, r6, lr}
	.cfi_remember_state
	.cfi_restore 14
	.cfi_restore 6
	.cfi_restore 5
	.cfi_restore 4
	.cfi_def_cfa_offset 0
.LVL66:
.LBB458:
.LBB457:
	.loc 8 101 16 view .LVU295
	bx	r3
.LVL67:
.L63:
	.cfi_restore_state
	.loc 8 101 16 view .LVU296
.LBE457:
.LBE458:
	.loc 8 139 17 is_stmt 1 view .LVU297
	.loc 8 177 5 view .LVU298
	.loc 8 139 21 is_stmt 0 view .LVU299
	bic	r5, r5, #64
.LVL68:
	.loc 8 177 30 view .LVU300
	strh	r5, [r3, #72]	@ movhi
.LVL69:
	.loc 8 179 5 is_stmt 1 view .LVU301
	.loc 8 182 1 is_stmt 0 view .LVU302
	pop	{r4, r5, r6, pc}
.LVL70:
.L73:
	.loc 8 177 5 is_stmt 1 view .LVU303
	.loc 8 177 30 is_stmt 0 view .LVU304
	strh	r0, [r3, #72]	@ movhi
.LVL71:
	.loc 8 179 5 is_stmt 1 view .LVU305
	.loc 8 182 1 is_stmt 0 view .LVU306
	pop	{r4, r5, r6, pc}
	.loc 8 182 1 view .LVU307
	.cfi_endproc
.LFE252:
	.size	SCPI_RegSet.part.0, .-SCPI_RegSet.part.0
	.section	.text.SCPI_ErrorEmitEmpty,"ax",%progbits
	.align	1
	.p2align 2,,3
	.syntax unified
	.thumb
	.thumb_func
	.fpu fpv4-sp-d16
	.type	SCPI_ErrorEmitEmpty, %function
SCPI_ErrorEmitEmpty:
.LVL72:
.LFB256:
	.loc 7 63 51 is_stmt 1 view -0
	.cfi_startproc
	@ args = 0, pretend = 0, frame = 0
	@ frame_needed = 0, uses_anonymous_args = 0
	.loc 7 64 5 view .LVU309
.LBB475:
.LBI475:
	.loc 7 123 9 view .LVU310
.LBB476:
	.loc 7 124 5 view .LVU311
	.loc 7 126 5 view .LVU312
	.loc 7 128 5 view .LVU313
	.loc 7 128 5 is_stmt 0 view .LVU314
.LBE476:
.LBE475:
	.loc 7 63 51 view .LVU315
	push	{r4, r5, r6, lr}
	.cfi_def_cfa_offset 16
	.cfi_offset 4, -16
	.cfi_offset 5, -12
	.cfi_offset 6, -8
	.cfi_offset 14, -4
	.loc 7 64 8 view .LVU316
	ldrsh	r5, [r0, #64]
	cbz	r5, .L88
.LVL73:
.L74:
	.loc 7 71 1 view .LVU317
	pop	{r4, r5, r6, pc}
.LVL74:
.L88:
.LBB477:
.LBI477:
	.loc 8 85 16 is_stmt 1 view .LVU318
.LBB478:
	.loc 8 87 34 is_stmt 0 view .LVU319
	ldrh	r2, [r0, #72]
.LVL75:
	.loc 8 87 34 view .LVU320
.LBE478:
.LBE477:
	.loc 7 64 41 view .LVU321
	lsls	r3, r2, #29
	mov	r4, r0
	bpl	.L74
.LVL76:
.LBB479:
.LBI479:
	.loc 7 63 13 is_stmt 1 view .LVU322
.LBB480:
	.loc 7 65 9 view .LVU323
.LBB481:
.LBI481:
	.loc 8 198 6 view .LVU324
.LBB482:
.LBB483:
.LBI483:
	.loc 8 112 6 view .LVU325
.LBB484:
	.loc 8 113 5 view .LVU326
	.loc 8 114 5 view .LVU327
	.loc 8 115 5 view .LVU328
	.loc 8 117 5 view .LVU329
	.loc 8 117 5 is_stmt 0 view .LVU330
.LBE484:
.LBE483:
	.loc 8 199 59 view .LVU331
	bic	r2, r2, #4
.LVL77:
.LBB486:
.LBB485:
	.loc 8 199 59 view .LVU332
	mov	r1, r5
	bl	SCPI_RegSet.part.0
.LVL78:
	.loc 8 199 59 view .LVU333
.LBE485:
.LBE486:
.LBE482:
.LBE481:
	.loc 7 67 9 is_stmt 1 view .LVU334
	.loc 7 67 20 is_stmt 0 view .LVU335
	ldr	r3, [r4, #44]
	.loc 7 67 12 view .LVU336
	cmp	r3, #0
	beq	.L74
	.loc 7 67 53 view .LVU337
	ldr	r3, [r3]
	.loc 7 67 32 view .LVU338
	cmp	r3, #0
	beq	.L74
	.loc 7 68 13 is_stmt 1 view .LVU339
	mov	r1, r5
	mov	r0, r4
.LBE480:
.LBE479:
	.loc 7 71 1 is_stmt 0 view .LVU340
	pop	{r4, r5, r6, lr}
	.cfi_restore 14
	.cfi_restore 6
	.cfi_restore 5
	.cfi_restore 4
	.cfi_def_cfa_offset 0
.LVL79:
.LBB488:
.LBB487:
	.loc 7 68 13 view .LVU341
	bx	r3
.LVL80:
	.loc 7 68 13 view .LVU342
.LBE487:
.LBE488:
	.cfi_endproc
.LFE256:
	.size	SCPI_ErrorEmitEmpty, .-SCPI_ErrorEmitEmpty
	.section	.text.SCPI_CoreCls,"ax",%progbits
	.align	1
	.p2align 2,,3
	.syntax unified
	.thumb
	.thumb_func
	.fpu fpv4-sp-d16
	.type	SCPI_CoreCls, %function
SCPI_CoreCls:
.LVL81:
.LFB258:
	.loc 8 217 46 is_stmt 1 view -0
	.cfi_startproc
	@ args = 0, pretend = 0, frame = 0
	@ frame_needed = 0, uses_anonymous_args = 0
	.loc 8 218 5 view .LVU344
.LBB501:
.LBI501:
	.loc 8 206 6 view .LVU345
.LBE501:
	.loc 8 208 5 view .LVU346
.LBB506:
.LBB502:
.LBI502:
	.loc 8 112 6 view .LVU347
.LBB503:
	.loc 8 113 5 view .LVU348
	.loc 8 114 5 view .LVU349
	.loc 8 115 5 view .LVU350
	.loc 8 117 5 view .LVU351
.LBE503:
.LBE502:
.LBE506:
	.loc 8 217 46 is_stmt 0 view .LVU352
	push	{r3, r4, r5, lr}
	.cfi_def_cfa_offset 16
	.cfi_offset 3, -16
	.cfi_offset 4, -12
	.cfi_offset 5, -8
	.cfi_offset 14, -4
.LBB507:
.LBB505:
.LBB504:
	.loc 8 117 34 view .LVU353
	mov	r4, r0
	cbz	r0, .L90
	movs	r2, #0
	movs	r1, #2
	bl	SCPI_RegSet.part.0
.LVL82:
.L90:
	.loc 8 117 34 view .LVU354
.LBE504:
.LBE505:
.LBE507:
	.loc 8 219 5 is_stmt 1 view .LVU355
.LBB508:
.LBI508:
	.loc 7 90 6 view .LVU356
.LBB509:
	.loc 7 97 5 view .LVU357
.LBB510:
.LBI510:
	.file 9 "/Users/margaret/Github/tinylogicfriend/lib/tinyusb/lib/libscpi/src/fifo.c"
	.loc 9 47 6 view .LVU358
.LBB511:
	.loc 9 48 5 view .LVU359
	.loc 9 49 5 view .LVU360
	.loc 9 50 5 view .LVU361
	.loc 9 48 14 is_stmt 0 view .LVU362
	movs	r5, #0
.LBE511:
.LBE510:
	.loc 7 99 5 view .LVU363
	mov	r0, r4
.LBB513:
.LBB512:
	.loc 9 48 14 view .LVU364
	str	r5, [r4, #60]
	.loc 9 50 17 view .LVU365
	strh	r5, [r4, #64]	@ movhi
.LVL83:
	.loc 9 50 17 view .LVU366
.LBE512:
.LBE513:
	.loc 7 99 5 is_stmt 1 view .LVU367
	bl	SCPI_ErrorEmitEmpty
.LVL84:
	.loc 7 99 5 is_stmt 0 view .LVU368
.LBE509:
.LBE508:
	.loc 8 220 5 is_stmt 1 view .LVU369
.LBB514:
.LBI514:
	.loc 8 112 6 view .LVU370
.LBB515:
	.loc 8 113 5 view .LVU371
	.loc 8 114 5 view .LVU372
	.loc 8 115 5 view .LVU373
	.loc 8 117 5 view .LVU374
	.loc 8 117 5 is_stmt 0 view .LVU375
	mov	r2, r5
	mov	r0, r4
	movs	r1, #4
	bl	SCPI_RegSet.part.0
.LVL85:
	.loc 8 117 5 view .LVU376
.LBE515:
.LBE514:
	.loc 8 221 5 is_stmt 1 view .LVU377
.LBB516:
.LBI516:
	.loc 8 112 6 view .LVU378
.LBB517:
	.loc 8 113 5 view .LVU379
	.loc 8 114 5 view .LVU380
	.loc 8 115 5 view .LVU381
	.loc 8 117 5 view .LVU382
	.loc 8 117 5 is_stmt 0 view .LVU383
	mov	r0, r4
	mov	r2, r5
	movs	r1, #7
	bl	SCPI_RegSet.part.0
.LVL86:
	.loc 8 117 5 view .LVU384
.LBE517:
.LBE516:
	.loc 8 222 5 is_stmt 1 view .LVU385
	.loc 8 223 1 is_stmt 0 view .LVU386
	movs	r0, #1
	pop	{r3, r4, r5, pc}
	.loc 8 223 1 view .LVU387
	.cfi_endproc
.LFE258:
	.size	SCPI_CoreCls, .-SCPI_CoreCls
	.section	.text.SCPI_CoreRst,"ax",%progbits
	.align	1
	.p2align 2,,3
	.syntax unified
	.thumb
	.thumb_func
	.fpu fpv4-sp-d16
	.type	SCPI_CoreRst, %function
SCPI_CoreRst:
.LVL87:
.LFB262:
	.loc 8 309 46 is_stmt 1 view -0
	.cfi_startproc
	@ args = 0, pretend = 0, frame = 0
	@ frame_needed = 0, uses_anonymous_args = 0
	@ link register save eliminated.
	.loc 8 310 5 view .LVU389
	.loc 8 310 8 is_stmt 0 view .LVU390
	cbz	r0, .L96
	.loc 8 310 27 discriminator 1 view .LVU391
	ldr	r3, [r0, #44]
	.loc 8 310 17 discriminator 1 view .LVU392
	cbz	r3, .L96
	.loc 8 310 60 discriminator 2 view .LVU393
	ldr	r3, [r3, #16]
	.loc 8 310 39 discriminator 2 view .LVU394
	cbz	r3, .L96
	.loc 8 311 9 is_stmt 1 view .LVU395
	.loc 8 311 16 is_stmt 0 view .LVU396
	bx	r3
.LVL88:
.L96:
	.loc 8 314 1 view .LVU397
	movs	r0, #1
.LVL89:
	.loc 8 314 1 view .LVU398
	bx	lr
	.cfi_endproc
.LFE262:
	.size	SCPI_CoreRst, .-SCPI_CoreRst
	.section	.text.SCPI_CoreWai,"ax",%progbits
	.align	1
	.p2align 2,,3
	.syntax unified
	.thumb
	.thumb_func
	.fpu fpv4-sp-d16
	.type	SCPI_CoreWai, %function
SCPI_CoreWai:
.LFB263:
	.cfi_startproc
	@ args = 0, pretend = 0, frame = 0
	@ frame_needed = 0, uses_anonymous_args = 0
	@ link register save eliminated.
	movs	r0, #1
	bx	lr
	.cfi_endproc
.LFE263:
	.size	SCPI_CoreWai, .-SCPI_CoreWai
	.section	.text.skipProgramMnemonic,"ax",%progbits
	.align	1
	.p2align 2,,3
	.syntax unified
	.thumb
	.thumb_func
	.fpu fpv4-sp-d16
	.type	skipProgramMnemonic, %function
skipProgramMnemonic:
.LVL90:
.LFB264:
	.file 10 "/Users/margaret/Github/tinylogicfriend/lib/tinyusb/lib/libscpi/src/lexer.c"
	.loc 10 307 53 is_stmt 1 view -0
	.cfi_startproc
	@ args = 0, pretend = 0, frame = 0
	@ frame_needed = 0, uses_anonymous_args = 0
	.loc 10 308 5 view .LVU400
	.loc 10 308 18 is_stmt 0 view .LVU401
	ldrd	r1, r3, [r0, #4]
.LVL91:
	.loc 10 309 5 is_stmt 1 view .LVU402
.LBB518:
.LBI518:
	.loc 10 86 12 view .LVU403
.LBB519:
	.loc 10 87 5 view .LVU404
	.loc 10 87 24 is_stmt 0 view .LVU405
	ldr	r2, [r0]
	add	r2, r2, r3
	.loc 10 87 8 view .LVU406
	cmp	r1, r2
	bcs	.L113
	.loc 10 90 9 is_stmt 1 view .LVU407
.LVL92:
	.loc 10 90 9 is_stmt 0 view .LVU408
.LBE519:
.LBE518:
	.loc 10 307 53 view .LVU409
	push	{r4, lr}
	.cfi_def_cfa_offset 8
	.cfi_offset 4, -8
	.cfi_offset 14, -4
	.loc 10 309 26 view .LVU410
	ldr	r4, .L129
	ldrb	r3, [r1]	@ zero_extendqisi2
	.loc 10 309 23 view .LVU411
	ldrb	r3, [r4, r3]	@ zero_extendqisi2
	ands	r3, r3, #3
	beq	.L114
	.loc 10 310 9 is_stmt 1 view .LVU412
	.loc 10 310 19 is_stmt 0 view .LVU413
	adds	r3, r1, #1
.LBB521:
.LBB522:
	.loc 10 87 8 view .LVU414
	cmp	r3, r2
.LBE522:
.LBE521:
	.loc 10 310 19 view .LVU415
	str	r3, [r0, #4]
	.loc 10 311 9 is_stmt 1 view .LVU416
	.loc 10 311 15 view .LVU417
.LVL93:
.LBB529:
.LBI521:
	.loc 10 86 12 view .LVU418
.LBB523:
	.loc 10 87 5 view .LVU419
	.loc 10 87 8 is_stmt 0 view .LVU420
	bcc	.L108
	mov	r0, #-1
.LVL94:
	.loc 10 87 8 view .LVU421
.LBE523:
.LBE529:
	.loc 10 316 5 is_stmt 1 view .LVU422
.LBB530:
.LBI530:
	.loc 10 86 12 view .LVU423
.LBB531:
	.loc 10 87 5 view .LVU424
.LBE531:
.LBE530:
	.loc 10 321 1 is_stmt 0 view .LVU425
	pop	{r4, pc}
.LVL95:
.L113:
	.cfi_def_cfa_offset 0
	.cfi_restore 4
	.cfi_restore 14
.LBB534:
.LBB520:
	.loc 10 321 1 view .LVU426
	movs	r0, #0
.LVL96:
	.loc 10 321 1 view .LVU427
.LBE520:
.LBE534:
	bx	lr
.LVL97:
.L114:
	.cfi_def_cfa_offset 8
	.cfi_offset 4, -8
	.cfi_offset 14, -4
	.loc 10 321 1 view .LVU428
	mov	r0, r3
.LVL98:
.LBB535:
.LBB532:
	.loc 10 90 9 is_stmt 1 view .LVU429
.LBE532:
.LBE535:
	.loc 10 319 9 view .LVU430
	.loc 10 321 1 is_stmt 0 view .LVU431
	pop	{r4, pc}
.LVL99:
.L128:
	.loc 10 311 68 view .LVU432
	cmp	ip, #95
	bne	.L126
.LBB536:
.LBB524:
	.loc 10 87 8 view .LVU433
	cmp	r3, r2
.LBE524:
.LBE536:
	.loc 10 312 23 view .LVU434
	str	r3, [r0, #4]
	.loc 10 311 15 is_stmt 1 view .LVU435
.LVL100:
.LBB537:
	.loc 10 86 12 view .LVU436
.LBB525:
	.loc 10 87 5 view .LVU437
	.loc 10 87 8 is_stmt 0 view .LVU438
	beq	.L127
.L108:
	.loc 10 87 8 view .LVU439
.LBE525:
.LBE537:
	.loc 10 312 13 is_stmt 1 view .LVU440
.LBB538:
.LBB526:
	.loc 10 90 9 view .LVU441
.LVL101:
	.loc 10 90 9 is_stmt 0 view .LVU442
.LBE526:
.LBE538:
	.loc 10 110 5 is_stmt 1 view .LVU443
	.loc 10 311 34 is_stmt 0 view .LVU444
	ldrb	ip, [r3], #1	@ zero_extendqisi2
	.loc 10 311 30 view .LVU445
	ldrb	lr, [r4, ip]	@ zero_extendqisi2
	tst	lr, #7
	beq	.L128
.LBB539:
.LBB527:
	.loc 10 87 8 view .LVU446
	cmp	r3, r2
.LBE527:
.LBE539:
	.loc 10 312 23 view .LVU447
	str	r3, [r0, #4]
	.loc 10 311 15 is_stmt 1 view .LVU448
.LVL102:
.LBB540:
	.loc 10 86 12 view .LVU449
.LBB528:
	.loc 10 87 5 view .LVU450
	.loc 10 87 8 is_stmt 0 view .LVU451
	bne	.L108
.L127:
	.loc 10 87 8 view .LVU452
.LBE528:
.LBE540:
	.loc 10 317 40 view .LVU453
	subs	r0, r1, r3
.LVL103:
	.loc 10 321 1 view .LVU454
	pop	{r4, pc}
.LVL104:
.L126:
	.loc 10 316 5 is_stmt 1 view .LVU455
.LBB541:
	.loc 10 86 12 view .LVU456
.LBB533:
	.loc 10 87 5 view .LVU457
	.loc 10 87 47 is_stmt 0 view .LVU458
	ldr	r0, [r0, #4]
.LVL105:
	.loc 10 87 8 view .LVU459
	cmp	r2, r0
	bls	.L110
.LBE533:
.LBE541:
	.loc 10 319 40 view .LVU460
	subs	r0, r0, r1
	.loc 10 321 1 view .LVU461
	pop	{r4, pc}
.L110:
	.loc 10 317 40 view .LVU462
	subs	r0, r1, r0
.LVL106:
	.loc 10 317 9 is_stmt 1 view .LVU463
	.loc 10 321 1 is_stmt 0 view .LVU464
	pop	{r4, pc}
.L130:
	.align	2
.L129:
	.word	_ctype_+1
	.cfi_endproc
.LFE264:
	.size	skipProgramMnemonic, .-skipProgramMnemonic
	.section	.text.scpiLex_WhiteSpace,"ax",%progbits
	.align	1
	.p2align 2,,3
	.syntax unified
	.thumb
	.thumb_func
	.fpu fpv4-sp-d16
	.type	scpiLex_WhiteSpace, %function
scpiLex_WhiteSpace:
.LVL107:
.LFB265:
	.loc 10 331 67 is_stmt 1 view -0
	.cfi_startproc
	@ args = 0, pretend = 0, frame = 0
	@ frame_needed = 0, uses_anonymous_args = 0
	.loc 10 332 5 view .LVU466
	.loc 10 331 67 is_stmt 0 view .LVU467
	push	{r4, lr}
	.cfi_def_cfa_offset 8
	.cfi_offset 4, -8
	.cfi_offset 14, -4
	.loc 10 332 23 view .LVU468
	ldr	r3, [r0, #4]
	.loc 10 332 16 view .LVU469
	str	r3, [r1, #4]
	.loc 10 334 5 is_stmt 1 view .LVU470
.LVL108:
.LBB548:
.LBI548:
	.loc 10 171 12 view .LVU471
.LBB549:
.LBB550:
.LBB551:
	.loc 10 87 24 is_stmt 0 view .LVU472
	ldr	r2, [r0]
	ldr	r4, [r0, #8]
	add	ip, r2, r4
	.loc 10 87 8 view .LVU473
	cmp	r3, ip
	bcc	.L136
.LVL109:
	.loc 10 87 8 view .LVU474
.LBE551:
.LBE550:
.LBE549:
.LBE548:
	.loc 10 336 5 is_stmt 1 view .LVU475
	.loc 10 336 16 is_stmt 0 view .LVU476
	movs	r0, #0
.LVL110:
	.loc 10 341 21 view .LVU477
	movs	r3, #26
	.loc 10 336 16 view .LVU478
	str	r0, [r1, #8]
	.loc 10 338 5 is_stmt 1 view .LVU479
	strb	r3, [r1]
	.loc 10 344 5 view .LVU480
	.loc 10 345 1 is_stmt 0 view .LVU481
	pop	{r4, pc}
.LVL111:
.L134:
.LBB559:
.LBB558:
.LBB554:
.LBB552:
	.loc 10 87 8 view .LVU482
	cmp	r3, ip
.LBE552:
.LBE554:
	.loc 10 174 19 view .LVU483
	str	r3, [r0, #4]
.LVL112:
.LBB555:
.LBB553:
	.loc 10 87 8 view .LVU484
	beq	.L146
.LVL113:
.L136:
	.loc 10 87 8 view .LVU485
	mov	r2, r3
	adds	r3, r3, #1
.LBE553:
.LBE555:
	.loc 10 173 29 view .LVU486
	ldrb	lr, [r2]	@ zero_extendqisi2
.LVL114:
.LBB556:
.LBB557:
	.loc 10 51 8 view .LVU487
	cmp	lr, #32
	beq	.L134
	.loc 10 51 20 view .LVU488
	cmp	lr, #9
	beq	.L134
.LBE557:
.LBE556:
.LBE558:
.LBE559:
	.loc 10 336 29 view .LVU489
	ldr	r3, [r1, #4]
	subs	r0, r2, r3
.LVL115:
.L135:
	.loc 10 336 5 is_stmt 1 view .LVU490
	.loc 10 339 21 is_stmt 0 view .LVU491
	cmp	r0, #0
	ite	le
	movle	r3, #26
	movgt	r3, #23
	.loc 10 336 16 view .LVU492
	str	r0, [r1, #8]
	.loc 10 338 5 is_stmt 1 view .LVU493
	strb	r3, [r1]
	.loc 10 344 5 view .LVU494
	.loc 10 345 1 is_stmt 0 view .LVU495
	pop	{r4, pc}
.LVL116:
.L146:
	.loc 10 336 29 view .LVU496
	ldr	r0, [r1, #4]
.LVL117:
	.loc 10 336 29 view .LVU497
	subs	r0, r3, r0
	b	.L135
	.cfi_endproc
.LFE265:
	.size	scpiLex_WhiteSpace, .-scpiLex_WhiteSpace
	.section	.text.scpiLex_CharacterProgramData,"ax",%progbits
	.align	1
	.p2align 2,,3
	.syntax unified
	.thumb
	.thumb_func
	.fpu fpv4-sp-d16
	.type	scpiLex_CharacterProgramData, %function
scpiLex_CharacterProgramData:
.LVL118:
.LFB266:
	.loc 10 452 77 is_stmt 1 view -0
	.cfi_startproc
	@ args = 0, pretend = 0, frame = 0
	@ frame_needed = 0, uses_anonymous_args = 0
	.loc 10 453 5 view .LVU499
	.loc 10 452 77 is_stmt 0 view .LVU500
	push	{r4, r5, lr}
	.cfi_def_cfa_offset 12
	.cfi_offset 4, -12
	.cfi_offset 5, -8
	.cfi_offset 14, -4
	.loc 10 453 23 view .LVU501
	ldr	r3, [r0, #4]
	.loc 10 453 16 view .LVU502
	str	r3, [r1, #4]
	.loc 10 455 5 is_stmt 1 view .LVU503
.LVL119:
.LBB560:
.LBI560:
	.loc 10 86 12 view .LVU504
.LBB561:
	.loc 10 87 5 view .LVU505
	.loc 10 87 24 is_stmt 0 view .LVU506
	ldr	r2, [r0]
	ldr	r4, [r0, #8]
	add	r2, r2, r4
	.loc 10 87 8 view .LVU507
	cmp	r3, r2
	bcc	.L165
.LVL120:
.L148:
	.loc 10 87 8 view .LVU508
.LBE561:
.LBE560:
	.loc 10 462 5 is_stmt 1 view .LVU509
	.loc 10 462 16 is_stmt 0 view .LVU510
	movs	r0, #0
.LVL121:
	.loc 10 466 21 view .LVU511
	movs	r3, #26
	.loc 10 462 16 view .LVU512
	str	r0, [r1, #8]
	.loc 10 463 5 is_stmt 1 view .LVU513
	strb	r3, [r1]
	.loc 10 469 5 view .LVU514
	.loc 10 470 1 is_stmt 0 view .LVU515
	pop	{r4, r5, pc}
.LVL122:
.L165:
.LBB563:
.LBB562:
	.loc 10 90 9 is_stmt 1 view .LVU516
	.loc 10 90 9 is_stmt 0 view .LVU517
.LBE562:
.LBE563:
	.loc 10 455 26 view .LVU518
	ldrb	ip, [r3]	@ zero_extendqisi2
	ldr	r4, .L167
	.loc 10 455 23 view .LVU519
	ldrb	ip, [r4, ip]	@ zero_extendqisi2
	tst	ip, #3
	beq	.L148
	.loc 10 456 9 is_stmt 1 view .LVU520
	.loc 10 456 19 is_stmt 0 view .LVU521
	adds	r3, r3, #1
.LBB564:
.LBB565:
	.loc 10 87 8 view .LVU522
	cmp	r3, r2
.LBE565:
.LBE564:
	.loc 10 456 19 view .LVU523
	str	r3, [r0, #4]
	.loc 10 457 9 is_stmt 1 view .LVU524
	.loc 10 457 15 view .LVU525
.LVL123:
.LBB570:
.LBI564:
	.loc 10 86 12 view .LVU526
.LBB566:
	.loc 10 87 5 view .LVU527
	.loc 10 87 8 is_stmt 0 view .LVU528
	bcs	.L164
	mov	ip, r3
.LVL124:
.L151:
	.loc 10 87 8 view .LVU529
.LBE566:
.LBE570:
	.loc 10 458 13 is_stmt 1 view .LVU530
.LBB571:
.LBB567:
	.loc 10 90 9 view .LVU531
	.loc 10 90 9 is_stmt 0 view .LVU532
.LBE567:
.LBE571:
	.loc 10 110 5 is_stmt 1 view .LVU533
	.loc 10 457 34 is_stmt 0 view .LVU534
	ldrb	lr, [ip], #1	@ zero_extendqisi2
	.loc 10 457 30 view .LVU535
	ldrb	r5, [r4, lr]	@ zero_extendqisi2
	lsls	r5, r5, #29
	.loc 10 458 23 view .LVU536
	mov	r3, ip
	.loc 10 457 30 view .LVU537
	bne	.L152
	.loc 10 457 68 view .LVU538
	cmp	lr, #95
	bne	.L166
.L152:
.LBB572:
.LBB568:
	.loc 10 87 8 view .LVU539
	cmp	r2, r3
.LBE568:
.LBE572:
	.loc 10 458 23 view .LVU540
	str	r3, [r0, #4]
	.loc 10 457 15 is_stmt 1 view .LVU541
.LVL125:
.LBB573:
	.loc 10 86 12 view .LVU542
.LBB569:
	.loc 10 87 5 view .LVU543
	.loc 10 87 8 is_stmt 0 view .LVU544
	bne	.L151
.LVL126:
.L164:
	.loc 10 87 8 view .LVU545
.LBE569:
.LBE573:
	.loc 10 462 36 view .LVU546
	ldr	r0, [r1, #4]
.LVL127:
	.loc 10 462 5 is_stmt 1 view .LVU547
	.loc 10 462 29 is_stmt 0 view .LVU548
	subs	r0, r3, r0
	.loc 10 464 21 view .LVU549
	cmp	r0, #0
	ite	le
	movle	r3, #26
	movgt	r3, #9
	.loc 10 462 16 view .LVU550
	str	r0, [r1, #8]
	.loc 10 463 5 is_stmt 1 view .LVU551
	strb	r3, [r1]
	.loc 10 469 5 view .LVU552
	.loc 10 470 1 is_stmt 0 view .LVU553
	pop	{r4, r5, pc}
.LVL128:
.L166:
	.loc 10 462 23 view .LVU554
	ldr	r3, [r0, #4]
	b	.L164
.L168:
	.align	2
.L167:
	.word	_ctype_+1
	.cfi_endproc
.LFE266:
	.size	scpiLex_CharacterProgramData, .-scpiLex_CharacterProgramData
	.section	.text.scpiLex_DecimalNumericProgramData,"ax",%progbits
	.align	1
	.p2align 2,,3
	.syntax unified
	.thumb
	.thumb_func
	.fpu fpv4-sp-d16
	.type	scpiLex_DecimalNumericProgramData, %function
scpiLex_DecimalNumericProgramData:
.LVL129:
.LFB267:
	.loc 10 509 82 is_stmt 1 view -0
	.cfi_startproc
	@ args = 0, pretend = 0, frame = 0
	@ frame_needed = 0, uses_anonymous_args = 0
	.loc 10 510 5 view .LVU556
	.loc 10 511 5 view .LVU557
	.loc 10 509 82 is_stmt 0 view .LVU558
	push	{r4, r5, r6, r7, r8, lr}
	.cfi_def_cfa_offset 24
	.cfi_offset 4, -24
	.cfi_offset 5, -20
	.cfi_offset 6, -16
	.cfi_offset 7, -12
	.cfi_offset 8, -8
	.cfi_offset 14, -4
	.loc 10 511 23 view .LVU559
	ldr	r3, [r0, #4]
	.loc 10 511 16 view .LVU560
	str	r3, [r1, #4]
	.loc 10 513 5 is_stmt 1 view .LVU561
.LVL130:
.LBB624:
.LBI624:
	.loc 10 473 12 view .LVU562
.LBB625:
	.loc 10 474 5 view .LVU563
	.loc 10 476 5 view .LVU564
.LBB626:
.LBI626:
	.loc 10 220 12 view .LVU565
.LBB627:
.LBB628:
.LBB629:
	.loc 10 87 24 is_stmt 0 view .LVU566
	ldr	r5, [r0]
	ldr	r2, [r0, #8]
	add	r5, r5, r2
	.loc 10 87 8 view .LVU567
	cmp	r3, r5
	bcs	.L170
.LVL131:
	.loc 10 87 8 view .LVU568
.LBE629:
.LBE628:
	.loc 10 221 45 view .LVU569
	ldrb	lr, [r3]	@ zero_extendqisi2
.LVL132:
.LBB630:
.LBB631:
	.loc 10 119 21 view .LVU570
	cmp	lr, #43
	beq	.L171
	cmp	lr, #45
	beq	.L171
.LVL133:
.L172:
	.loc 10 119 21 view .LVU571
	ldr	r7, .L231
	adds	r2, r3, #1
	mvns	r3, r3
.L174:
.LBE631:
.LBE630:
.LBE627:
.LBE626:
.LBB634:
.LBB635:
	.loc 10 209 9 is_stmt 1 view .LVU572
	.loc 10 208 26 is_stmt 0 view .LVU573
	ldrb	ip, [r7, lr]	@ zero_extendqisi2
	ands	ip, ip, #4
	add	r8, r3, r2
	.loc 10 209 19 view .LVU574
	mov	r6, r2
	add	r4, r2, #-1
.LVL134:
.LBB636:
.LBB637:
	.loc 10 90 9 is_stmt 1 view .LVU575
.LBE637:
.LBE636:
	.loc 10 208 26 is_stmt 0 view .LVU576
	beq	.L225
.LBB642:
.LBB638:
	.loc 10 87 8 view .LVU577
	cmp	r2, r5
.LBE638:
.LBE642:
	.loc 10 209 19 view .LVU578
	str	r2, [r0, #4]
	.loc 10 210 9 is_stmt 1 view .LVU579
.LVL135:
	.loc 10 208 11 view .LVU580
.LBB643:
.LBI636:
	.loc 10 86 12 view .LVU581
.LBB639:
	.loc 10 87 5 view .LVU582
	.loc 10 87 8 is_stmt 0 view .LVU583
	bcc	.L226
.LVL136:
.L175:
	.loc 10 87 8 view .LVU584
.LBE639:
.LBE643:
.LBE635:
.LBE634:
.LBE625:
.LBE624:
	.loc 10 517 13 is_stmt 1 view .LVU585
	.loc 10 517 24 is_stmt 0 view .LVU586
	str	r6, [r0, #4]
	mov	r3, r6
	b	.L194
.LVL137:
.L171:
.LBB693:
.LBB686:
.LBB651:
.LBB632:
	.loc 10 222 19 view .LVU587
	adds	r2, r3, #1
.LBE632:
.LBE651:
.LBB652:
.LBB646:
.LBB644:
.LBB640:
	.loc 10 87 8 view .LVU588
	cmp	r5, r2
.LBE640:
.LBE644:
.LBE646:
.LBE652:
.LBB653:
.LBB633:
	.loc 10 222 19 view .LVU589
	str	r2, [r0, #4]
.LVL138:
	.loc 10 222 19 view .LVU590
.LBE633:
.LBE653:
.LBB654:
.LBB647:
	.loc 10 208 11 is_stmt 1 view .LVU591
.LBB645:
	.loc 10 86 12 view .LVU592
.LBB641:
	.loc 10 87 5 view .LVU593
	.loc 10 87 8 is_stmt 0 view .LVU594
	bhi	.L227
.LVL139:
.L173:
	.loc 10 87 8 view .LVU595
.LBE641:
.LBE645:
.LBE647:
.LBE654:
.LBE686:
.LBE693:
	.loc 10 520 27 view .LVU596
	ldr	r3, [r1, #4]
.L170:
	.loc 10 520 9 is_stmt 1 view .LVU597
	.loc 10 520 20 is_stmt 0 view .LVU598
	str	r3, [r0, #4]
.L194:
	.loc 10 523 5 is_stmt 1 view .LVU599
	.loc 10 523 29 is_stmt 0 view .LVU600
	ldr	r0, [r1, #4]
.LVL140:
	.loc 10 523 29 view .LVU601
	subs	r0, r3, r0
	.loc 10 525 21 view .LVU602
	cmp	r0, #0
	ite	le
	movle	r3, #26
	movgt	r3, #10
	.loc 10 523 16 view .LVU603
	str	r0, [r1, #8]
	.loc 10 524 5 is_stmt 1 view .LVU604
	strb	r3, [r1]
	.loc 10 530 5 view .LVU605
	.loc 10 531 1 is_stmt 0 view .LVU606
	pop	{r4, r5, r6, r7, r8, pc}
.LVL141:
.L225:
.LBB694:
.LBB687:
.LBB655:
.LBB648:
	.loc 10 212 5 is_stmt 1 view .LVU607
	.loc 10 212 5 is_stmt 0 view .LVU608
.LBE648:
.LBE655:
	.loc 10 480 5 is_stmt 1 view .LVU609
.LBB656:
.LBI656:
	.loc 10 249 12 view .LVU610
.LBB657:
	.loc 10 250 5 view .LVU611
.LBB658:
.LBI658:
	.loc 10 86 12 view .LVU612
.LBB659:
	.loc 10 87 5 view .LVU613
	.loc 10 87 8 is_stmt 0 view .LVU614
	cmp	r5, r4
	bls	.L177
	.loc 10 90 9 is_stmt 1 view .LVU615
.LVL142:
	.loc 10 90 9 is_stmt 0 view .LVU616
.LBE659:
.LBE658:
.LBE657:
.LBE656:
.LBE687:
.LBE694:
	.loc 10 110 5 is_stmt 1 view .LVU617
.LBB695:
.LBB688:
.LBB663:
.LBB660:
	.loc 10 250 23 is_stmt 0 view .LVU618
	cmp	lr, #46
	beq	.L228
.LVL143:
.L177:
	.loc 10 250 23 view .LVU619
.LBE660:
.LBE663:
	.loc 10 484 5 is_stmt 1 view .LVU620
	.loc 10 484 5 is_stmt 0 view .LVU621
.LBE688:
.LBE695:
	.loc 10 513 8 view .LVU622
	cmp	r8, #0
	beq	.L173
	b	.L180
.LVL144:
.L226:
.LBB696:
.LBB689:
.LBB664:
.LBB649:
	.loc 10 208 29 view .LVU623
	ldrb	lr, [r2], #1	@ zero_extendqisi2
	b	.L174
.LVL145:
.L228:
	.loc 10 208 29 view .LVU624
.LBE649:
.LBE664:
.LBB665:
.LBB661:
	.loc 10 251 9 is_stmt 1 view .LVU625
.LBE661:
.LBE665:
.LBB666:
.LBB667:
.LBB668:
.LBB669:
	.loc 10 87 8 is_stmt 0 view .LVU626
	cmp	r2, r5
.LBE669:
.LBE668:
.LBE667:
.LBE666:
.LBB681:
.LBB662:
	.loc 10 251 19 view .LVU627
	str	r2, [r0, #4]
	.loc 10 252 9 is_stmt 1 view .LVU628
.LVL146:
	.loc 10 252 9 is_stmt 0 view .LVU629
.LBE662:
.LBE681:
	.loc 10 481 9 is_stmt 1 view .LVU630
.LBB682:
.LBI666:
	.loc 10 206 12 view .LVU631
.LBB678:
	.loc 10 207 5 view .LVU632
	.loc 10 208 5 view .LVU633
	.loc 10 208 11 view .LVU634
.LBB674:
.LBI668:
	.loc 10 86 12 view .LVU635
.LBB670:
	.loc 10 87 5 view .LVU636
	.loc 10 87 8 is_stmt 0 view .LVU637
	bcs	.L177
	subs	r4, r5, r2
.LVL147:
.L181:
	.loc 10 87 8 view .LVU638
.LBE670:
.LBE674:
	.loc 10 209 9 is_stmt 1 view .LVU639
.LBB675:
.LBB671:
	.loc 10 90 9 view .LVU640
.LBE671:
.LBE675:
	.loc 10 208 29 is_stmt 0 view .LVU641
	ldrb	r3, [r2], #1	@ zero_extendqisi2
	.loc 10 208 26 view .LVU642
	ldrb	r3, [r7, r3]	@ zero_extendqisi2
	lsls	r3, r3, #29
	bpl	.L229
	.loc 10 210 20 view .LVU643
	add	ip, ip, #1
.LVL148:
.LBB676:
.LBB672:
	.loc 10 87 8 view .LVU644
	cmp	ip, r4
.LBE672:
.LBE676:
	.loc 10 209 19 view .LVU645
	str	r2, [r0, #4]
	.loc 10 210 9 is_stmt 1 view .LVU646
.LVL149:
	.loc 10 208 11 view .LVU647
.LBB677:
	.loc 10 86 12 view .LVU648
.LBB673:
	.loc 10 87 5 view .LVU649
	.loc 10 87 8 is_stmt 0 view .LVU650
	bne	.L181
.LVL150:
.L180:
	.loc 10 87 8 view .LVU651
.LBE673:
.LBE677:
.LBE678:
.LBE682:
.LBE689:
.LBE696:
	.loc 10 514 18 view .LVU652
	ldr	r6, [r0, #4]
	.loc 10 514 9 is_stmt 1 view .LVU653
.LVL151:
	.loc 10 515 9 view .LVU654
.LBB697:
.LBI697:
	.loc 10 171 12 view .LVU655
.LBB698:
.LBB699:
.LBB700:
	.loc 10 87 8 is_stmt 0 view .LVU656
	cmp	r5, r6
	bls	.L175
	mov	r2, r6
.LVL152:
.L185:
	.loc 10 87 8 view .LVU657
	mov	r3, r2
.LBE700:
.LBE699:
	.loc 10 173 44 view .LVU658
	ldrb	r4, [r2], #1	@ zero_extendqisi2
.LVL153:
.LBB703:
.LBB704:
	.loc 10 51 8 view .LVU659
	cmp	r4, #32
	beq	.L183
	.loc 10 51 20 view .LVU660
	cmp	r4, #9
	beq	.L183
.LVL154:
	.loc 10 51 20 view .LVU661
.LBE704:
.LBE703:
.LBE698:
.LBE697:
	.loc 10 516 9 is_stmt 1 view .LVU662
.LBB708:
.LBI708:
	.loc 10 487 12 view .LVU663
.LBB709:
	.loc 10 488 5 view .LVU664
	.loc 10 490 5 view .LVU665
.LBB710:
.LBI710:
	.loc 10 86 12 view .LVU666
.LBB711:
	.loc 10 87 5 view .LVU667
	.loc 10 87 8 is_stmt 0 view .LVU668
	cmp	r5, r3
	bls	.L175
	.loc 10 90 9 is_stmt 1 view .LVU669
.LVL155:
	.loc 10 90 9 is_stmt 0 view .LVU670
.LBE711:
.LBE710:
.LBB712:
.LBI712:
	.loc 10 154 12 is_stmt 1 view .LVU671
.LBB713:
	.loc 10 155 5 view .LVU672
	.loc 10 155 21 is_stmt 0 view .LVU673
	and	r4, r4, #223
.LVL156:
	.loc 10 155 21 view .LVU674
	cmp	r4, #69
	bne	.L175
.LVL157:
	.loc 10 155 21 view .LVU675
.LBE713:
.LBE712:
	.loc 10 491 9 is_stmt 1 view .LVU676
	.loc 10 491 19 is_stmt 0 view .LVU677
	adds	r3, r3, #1
.LBB714:
.LBB715:
.LBB716:
.LBB717:
	.loc 10 87 8 view .LVU678
	cmp	r5, r3
.LBE717:
.LBE716:
.LBE715:
.LBE714:
	.loc 10 491 19 view .LVU679
	str	r3, [r0, #4]
	.loc 10 493 9 is_stmt 1 view .LVU680
.LVL158:
.LBB728:
.LBI714:
	.loc 10 171 12 view .LVU681
.LBB726:
.LBB721:
.LBB718:
	.loc 10 87 8 is_stmt 0 view .LVU682
	bls	.L175
.LVL159:
.L189:
	.loc 10 87 8 view .LVU683
	mov	r2, r3
	adds	r3, r3, #1
.LBE718:
.LBE721:
	.loc 10 173 29 view .LVU684
	ldrb	r4, [r2]	@ zero_extendqisi2
.LVL160:
.LBB722:
.LBB723:
	.loc 10 51 8 view .LVU685
	cmp	r4, #32
	beq	.L186
	.loc 10 51 20 view .LVU686
	cmp	r4, #9
	beq	.L186
.LVL161:
	.loc 10 51 20 view .LVU687
.LBE723:
.LBE722:
.LBE726:
.LBE728:
	.loc 10 495 9 is_stmt 1 view .LVU688
.LBB729:
.LBI729:
	.loc 10 220 12 view .LVU689
.LBB730:
.LBB731:
.LBB732:
	.loc 10 87 8 is_stmt 0 view .LVU690
	cmp	r5, r2
	bls	.L224
.LVL162:
	.loc 10 87 8 view .LVU691
.LBE732:
.LBE731:
.LBB733:
.LBB734:
	.loc 10 119 21 view .LVU692
	cmp	r4, #43
	beq	.L192
	cmp	r4, #45
	beq	.L192
.LVL163:
.L224:
	.loc 10 119 21 view .LVU693
.LBE734:
.LBE733:
.LBE730:
.LBE729:
.LBB737:
.LBB738:
	.loc 10 208 11 is_stmt 1 view .LVU694
.LBB739:
.LBI739:
	.loc 10 86 12 view .LVU695
.LBB740:
	.loc 10 87 5 view .LVU696
	.loc 10 87 47 is_stmt 0 view .LVU697
	ldr	r2, [r0, #4]
	.loc 10 87 8 view .LVU698
	cmp	r5, r2
	bls	.L175
.L191:
	.loc 10 87 8 view .LVU699
.LBE740:
.LBE739:
.LBE738:
.LBE737:
.LBE709:
.LBE708:
.LBB763:
.LBB690:
.LBB683:
.LBB679:
	.loc 10 207 9 view .LVU700
	movs	r4, #0
.LVL164:
.L193:
	.loc 10 207 9 view .LVU701
.LBE679:
.LBE683:
.LBE690:
.LBE763:
.LBB764:
.LBB760:
.LBB754:
.LBB751:
	.loc 10 209 9 is_stmt 1 view .LVU702
.LBB746:
.LBB741:
	.loc 10 90 9 view .LVU703
.LBE741:
.LBE746:
	.loc 10 208 29 is_stmt 0 view .LVU704
	ldrb	r3, [r2], #1	@ zero_extendqisi2
	.loc 10 208 26 view .LVU705
	ldrb	ip, [r7, r3]	@ zero_extendqisi2
	tst	ip, #4
	.loc 10 209 19 view .LVU706
	mov	r3, r2
	.loc 10 208 26 view .LVU707
	beq	.L230
.LBB747:
.LBB742:
	.loc 10 87 8 view .LVU708
	cmp	r5, r2
.LBE742:
.LBE747:
	.loc 10 209 19 view .LVU709
	str	r2, [r0, #4]
	.loc 10 210 9 is_stmt 1 view .LVU710
	.loc 10 210 20 is_stmt 0 view .LVU711
	add	r4, r4, #1
.LVL165:
	.loc 10 208 11 is_stmt 1 view .LVU712
.LBB748:
	.loc 10 86 12 view .LVU713
.LBB743:
	.loc 10 87 5 view .LVU714
	.loc 10 87 8 is_stmt 0 view .LVU715
	bls	.L194
	b	.L193
.LVL166:
.L227:
	.loc 10 87 8 view .LVU716
.LBE743:
.LBE748:
.LBE751:
.LBE754:
.LBE760:
.LBE764:
.LBB765:
.LBB691:
.LBB684:
.LBB650:
	.loc 10 208 29 view .LVU717
	ldrb	lr, [r3, #1]	@ zero_extendqisi2
	mov	r3, r2
	b	.L172
.LVL167:
.L183:
	.loc 10 208 29 view .LVU718
.LBE650:
.LBE684:
.LBE691:
.LBE765:
.LBB766:
.LBB707:
.LBB705:
.LBB701:
	.loc 10 87 8 view .LVU719
	cmp	r5, r2
.LBE701:
.LBE705:
	.loc 10 174 19 view .LVU720
	str	r2, [r0, #4]
.LVL168:
.LBB706:
.LBB702:
	.loc 10 87 8 view .LVU721
	beq	.L175
	b	.L185
.LVL169:
.L186:
	.loc 10 87 8 view .LVU722
.LBE702:
.LBE706:
.LBE707:
.LBE766:
.LBB767:
.LBB761:
.LBB755:
.LBB727:
.LBB724:
.LBB719:
	cmp	r5, r3
.LBE719:
.LBE724:
	.loc 10 174 19 view .LVU723
	str	r3, [r0, #4]
.LVL170:
.LBB725:
.LBB720:
	.loc 10 87 8 view .LVU724
	beq	.L175
	b	.L189
.LVL171:
.L192:
	.loc 10 87 8 view .LVU725
.LBE720:
.LBE725:
.LBE727:
.LBE755:
.LBB756:
.LBB735:
	.loc 10 222 19 view .LVU726
	adds	r2, r2, #1
.LBE735:
.LBE756:
.LBB757:
.LBB752:
.LBB749:
.LBB744:
	.loc 10 87 8 view .LVU727
	cmp	r5, r2
.LBE744:
.LBE749:
.LBE752:
.LBE757:
.LBB758:
.LBB736:
	.loc 10 222 19 view .LVU728
	str	r2, [r0, #4]
.LVL172:
	.loc 10 222 19 view .LVU729
.LBE736:
.LBE758:
.LBB759:
.LBB753:
	.loc 10 208 11 is_stmt 1 view .LVU730
.LBB750:
	.loc 10 86 12 view .LVU731
.LBB745:
	.loc 10 87 5 view .LVU732
	.loc 10 87 8 is_stmt 0 view .LVU733
	bls	.L175
	b	.L191
.LVL173:
.L229:
	.loc 10 87 8 view .LVU734
.LBE745:
.LBE750:
.LBE753:
.LBE759:
.LBE761:
.LBE767:
.LBB768:
.LBB692:
	.loc 10 481 21 view .LVU735
	add	r8, r8, ip
.LVL174:
.LBB685:
.LBB680:
	.loc 10 212 5 is_stmt 1 view .LVU736
	.loc 10 212 5 is_stmt 0 view .LVU737
.LBE680:
.LBE685:
	.loc 10 484 5 is_stmt 1 view .LVU738
	.loc 10 484 5 is_stmt 0 view .LVU739
.LBE692:
.LBE768:
	.loc 10 513 8 view .LVU740
	cmp	r8, #0
	beq	.L173
	b	.L180
.LVL175:
.L230:
.LBB769:
.LBB762:
	.loc 10 500 5 is_stmt 1 view .LVU741
	.loc 10 500 5 is_stmt 0 view .LVU742
.LBE762:
.LBE769:
	.loc 10 516 12 view .LVU743
	cmp	r4, #0
	beq	.L175
	.loc 10 523 23 view .LVU744
	ldr	r3, [r0, #4]
	b	.L194
.L232:
	.align	2
.L231:
	.word	_ctype_+1
	.cfi_endproc
.LFE267:
	.size	scpiLex_DecimalNumericProgramData, .-scpiLex_DecimalNumericProgramData
	.section	.text.scpiLex_SuffixProgramData,"ax",%progbits
	.align	1
	.p2align 2,,3
	.syntax unified
	.thumb
	.thumb_func
	.fpu fpv4-sp-d16
	.type	scpiLex_SuffixProgramData, %function
scpiLex_SuffixProgramData:
.LVL176:
.LFB271:
	.loc 10 534 74 is_stmt 1 view -0
	.cfi_startproc
	@ args = 0, pretend = 0, frame = 0
	@ frame_needed = 0, uses_anonymous_args = 0
	.loc 10 535 5 view .LVU746
	.loc 10 534 74 is_stmt 0 view .LVU747
	push	{r4, r5, r6, r7, r8, lr}
	.cfi_def_cfa_offset 24
	.cfi_offset 4, -24
	.cfi_offset 5, -20
	.cfi_offset 6, -16
	.cfi_offset 7, -12
	.cfi_offset 8, -8
	.cfi_offset 14, -4
	.loc 10 534 74 view .LVU748
	mov	ip, r0
	.loc 10 535 23 view .LVU749
	ldr	r3, [r0, #4]
	.loc 10 535 16 view .LVU750
	str	r3, [r1, #4]
	.loc 10 537 5 is_stmt 1 view .LVU751
.LVL177:
.LBB812:
.LBI812:
	.loc 10 249 12 view .LVU752
.LBB813:
	.loc 10 250 5 view .LVU753
.LBB814:
.LBI814:
	.loc 10 86 12 view .LVU754
.LBB815:
	.loc 10 87 5 view .LVU755
	.loc 10 87 24 is_stmt 0 view .LVU756
	ldr	r0, [r0]
.LVL178:
	.loc 10 87 24 view .LVU757
	ldr	r2, [ip, #8]
	add	r0, r0, r2
	.loc 10 87 8 view .LVU758
	cmp	r3, r0
	bcc	.L275
.LVL179:
.L234:
	.loc 10 87 8 view .LVU759
.LBE815:
.LBE814:
.LBE813:
.LBE812:
	.loc 10 555 9 is_stmt 1 view .LVU760
	.loc 10 555 21 is_stmt 0 view .LVU761
	movs	r0, #26
	.loc 10 557 20 view .LVU762
	movs	r2, #0
	.loc 10 555 21 view .LVU763
	strb	r0, [r1]
	.loc 10 556 9 is_stmt 1 view .LVU764
	.loc 10 556 20 is_stmt 0 view .LVU765
	str	r3, [ip, #4]
	.loc 10 557 9 is_stmt 1 view .LVU766
	.loc 10 560 5 view .LVU767
	.loc 10 557 20 is_stmt 0 view .LVU768
	mov	r0, r2
	str	r2, [r1, #8]
	.loc 10 561 1 view .LVU769
	pop	{r4, r5, r6, r7, r8, pc}
.LVL180:
.L275:
.LBB823:
.LBB820:
.LBB817:
.LBB816:
	.loc 10 90 9 is_stmt 1 view .LVU770
	.loc 10 90 9 is_stmt 0 view .LVU771
.LBE816:
.LBE817:
.LBB818:
.LBI818:
	.loc 10 109 12 is_stmt 1 view .LVU772
.LBB819:
	.loc 10 110 5 view .LVU773
	.loc 10 110 23 is_stmt 0 view .LVU774
	ldrb	r6, [r3]	@ zero_extendqisi2
.LVL181:
	.loc 10 110 23 view .LVU775
.LBE819:
.LBE818:
	.loc 10 250 23 view .LVU776
	cmp	r6, #47
	beq	.L276
.LVL182:
.L235:
	.loc 10 250 23 view .LVU777
	ldr	r5, .L282
	adds	r4, r3, #1
	mvns	r3, r3
.L237:
.LBE820:
.LBE823:
.LBB824:
.LBB825:
	.loc 10 237 9 is_stmt 1 view .LVU778
	.loc 10 236 26 is_stmt 0 view .LVU779
	ldrb	lr, [r5, r6]	@ zero_extendqisi2
	tst	lr, #3
	add	r7, r4, #-1
	.loc 10 237 19 view .LVU780
	mov	r2, r4
	add	r8, r3, r4
.LVL183:
.LBB826:
.LBB827:
	.loc 10 90 9 is_stmt 1 view .LVU781
.LBE827:
.LBE826:
	.loc 10 236 26 is_stmt 0 view .LVU782
	beq	.L277
.LBB832:
.LBB828:
	.loc 10 87 8 view .LVU783
	cmp	r0, r4
.LBE828:
.LBE832:
	.loc 10 237 19 view .LVU784
	str	r4, [ip, #4]
	.loc 10 238 9 is_stmt 1 view .LVU785
.LVL184:
	.loc 10 236 11 view .LVU786
.LBB833:
.LBI826:
	.loc 10 86 12 view .LVU787
.LBB829:
	.loc 10 87 5 view .LVU788
	.loc 10 87 8 is_stmt 0 view .LVU789
	bhi	.L278
.LVL185:
.L236:
	.loc 10 87 8 view .LVU790
.LBE829:
.LBE833:
.LBE825:
.LBE824:
	.loc 10 551 36 view .LVU791
	ldr	r3, [r1, #4]
.L241:
	.loc 10 551 5 is_stmt 1 view .LVU792
	.loc 10 551 29 is_stmt 0 view .LVU793
	subs	r0, r2, r3
	.loc 10 552 8 view .LVU794
	cmp	r0, #0
	.loc 10 551 16 view .LVU795
	str	r0, [r1, #8]
	.loc 10 552 5 is_stmt 1 view .LVU796
	.loc 10 552 8 is_stmt 0 view .LVU797
	ble	.L234
	.loc 10 553 9 is_stmt 1 view .LVU798
	.loc 10 553 21 is_stmt 0 view .LVU799
	movs	r3, #12
	strb	r3, [r1]
	.loc 10 561 1 view .LVU800
	pop	{r4, r5, r6, r7, r8, pc}
.LVL186:
.L278:
.LBB839:
.LBB836:
	.loc 10 236 29 view .LVU801
	ldrb	r6, [r4], #1	@ zero_extendqisi2
	b	.L237
.LVL187:
.L276:
	.loc 10 236 29 view .LVU802
.LBE836:
.LBE839:
.LBB840:
.LBB821:
	.loc 10 251 9 is_stmt 1 view .LVU803
	.loc 10 251 19 is_stmt 0 view .LVU804
	adds	r2, r3, #1
.LBE821:
.LBE840:
.LBB841:
.LBB837:
.LBB834:
.LBB830:
	.loc 10 87 8 view .LVU805
	cmp	r0, r2
.LBE830:
.LBE834:
.LBE837:
.LBE841:
.LBB842:
.LBB822:
	.loc 10 251 19 view .LVU806
	str	r2, [ip, #4]
	.loc 10 252 9 is_stmt 1 view .LVU807
.LVL188:
	.loc 10 252 9 is_stmt 0 view .LVU808
.LBE822:
.LBE842:
.LBB843:
.LBB838:
	.loc 10 236 11 is_stmt 1 view .LVU809
.LBB835:
	.loc 10 86 12 view .LVU810
.LBB831:
	.loc 10 87 5 view .LVU811
	.loc 10 87 8 is_stmt 0 view .LVU812
	bls	.L236
.LBE831:
.LBE835:
	.loc 10 236 29 view .LVU813
	ldrb	r6, [r3, #1]	@ zero_extendqisi2
	mov	r3, r2
	b	.L235
.LVL189:
.L277:
	.loc 10 240 5 is_stmt 1 view .LVU814
	.loc 10 240 5 is_stmt 0 view .LVU815
.LBE838:
.LBE843:
	.loc 10 540 8 view .LVU816
	cmp	r8, #0
	beq	.L270
	.loc 10 541 9 is_stmt 1 view .LVU817
.LVL190:
.LBB844:
.LBI844:
	.loc 10 249 12 view .LVU818
.LBB845:
	.loc 10 250 5 view .LVU819
.LBB846:
.LBI846:
	.loc 10 86 12 view .LVU820
.LBB847:
	.loc 10 87 5 view .LVU821
	.loc 10 87 8 is_stmt 0 view .LVU822
	cmp	r0, r7
	bls	.L251
	.loc 10 90 9 is_stmt 1 view .LVU823
.LVL191:
	.loc 10 90 9 is_stmt 0 view .LVU824
.LBE847:
.LBE846:
.LBE845:
.LBE844:
	.loc 10 110 5 is_stmt 1 view .LVU825
.LBB851:
.LBB848:
	.loc 10 250 23 is_stmt 0 view .LVU826
	cmp	r6, #45
	beq	.L279
.LVL192:
.L251:
	.loc 10 250 23 view .LVU827
.LBE848:
.LBE851:
.LBB852:
.LBB853:
.LBB854:
.LBB855:
	.loc 10 87 47 view .LVU828
	ldr	r2, [ip, #4]
.L248:
	.loc 10 87 47 view .LVU829
.LBE855:
.LBE854:
.LBE853:
.LBE852:
	.loc 10 547 13 is_stmt 1 view .LVU830
.LBB861:
.LBI852:
	.loc 10 192 12 view .LVU831
.LBB858:
.LBB857:
.LBB856:
	.loc 10 87 8 is_stmt 0 view .LVU832
	cmp	r0, r2
	bls	.L236
.LBE856:
.LBE857:
	.loc 10 193 26 view .LVU833
	ldrb	r3, [r2]	@ zero_extendqisi2
	.loc 10 193 23 view .LVU834
	ldrb	r4, [r5, r3]	@ zero_extendqisi2
	lsls	r4, r4, #29
	bpl	.L255
	.loc 10 194 19 view .LVU835
	adds	r4, r2, #1
.LBE858:
.LBE861:
.LBB862:
.LBB863:
.LBB864:
.LBB865:
	.loc 10 87 8 view .LVU836
	cmp	r0, r4
.LBE865:
.LBE864:
.LBE863:
.LBE862:
.LBB879:
.LBB859:
	.loc 10 194 19 view .LVU837
	str	r4, [ip, #4]
.LBE859:
.LBE879:
	.loc 10 544 15 is_stmt 1 view .LVU838
.LVL193:
.LBB880:
.LBI862:
	.loc 10 263 12 view .LVU839
.LBB876:
	.loc 10 264 5 view .LVU840
.LBB868:
.LBI864:
	.loc 10 86 12 view .LVU841
.LBB866:
	.loc 10 87 5 view .LVU842
	.loc 10 87 8 is_stmt 0 view .LVU843
	bls	.L280
.LBE866:
.LBE868:
.LBB869:
.LBB870:
	.loc 10 110 23 view .LVU844
	ldrb	r3, [r2, #1]	@ zero_extendqisi2
	mov	r2, r4
.LVL194:
.L255:
	.loc 10 110 23 view .LVU845
.LBE870:
.LBE869:
.LBB872:
.LBB867:
	.loc 10 90 9 is_stmt 1 view .LVU846
	.loc 10 90 9 is_stmt 0 view .LVU847
.LBE867:
.LBE872:
.LBB873:
.LBI869:
	.loc 10 109 12 is_stmt 1 view .LVU848
.LBB871:
	.loc 10 110 5 view .LVU849
	.loc 10 110 5 is_stmt 0 view .LVU850
.LBE871:
.LBE873:
.LBB874:
.LBI874:
	.loc 10 109 12 is_stmt 1 view .LVU851
.LBB875:
	.loc 10 110 5 view .LVU852
	.loc 10 110 5 is_stmt 0 view .LVU853
.LBE875:
.LBE874:
	.loc 10 264 23 view .LVU854
	subs	r3, r3, #46
	cmp	r3, #1
	bls	.L256
.L270:
	.loc 10 264 23 view .LVU855
.LBE876:
.LBE880:
	.loc 10 551 23 view .LVU856
	ldr	r2, [ip, #4]
	.loc 10 551 36 view .LVU857
	ldr	r3, [r1, #4]
	b	.L241
.L256:
.LBB881:
.LBB877:
	.loc 10 265 9 is_stmt 1 view .LVU858
	.loc 10 265 19 is_stmt 0 view .LVU859
	adds	r2, r2, #1
.LBE877:
.LBE881:
.LBB882:
.LBB883:
.LBB884:
.LBB885:
	.loc 10 87 8 view .LVU860
	cmp	r0, r2
.LBE885:
.LBE884:
.LBE883:
.LBE882:
.LBB895:
.LBB878:
	.loc 10 265 19 view .LVU861
	str	r2, [ip, #4]
	.loc 10 266 9 is_stmt 1 view .LVU862
.LBE878:
.LBE895:
.LBB896:
.LBB894:
	.loc 10 236 11 view .LVU863
.LVL195:
.LBB890:
.LBI884:
	.loc 10 86 12 view .LVU864
.LBB886:
	.loc 10 87 5 view .LVU865
	.loc 10 87 8 is_stmt 0 view .LVU866
	bls	.L236
	mov	r3, r2
.LVL196:
.L258:
	.loc 10 87 8 view .LVU867
.LBE886:
.LBE890:
	.loc 10 237 9 is_stmt 1 view .LVU868
	mov	r6, r3
.LBB891:
.LBB887:
	.loc 10 90 9 view .LVU869
.LBE887:
.LBE891:
	.loc 10 236 29 is_stmt 0 view .LVU870
	ldrb	lr, [r3], #1	@ zero_extendqisi2
	.loc 10 236 26 view .LVU871
	ldrb	r4, [r5, lr]	@ zero_extendqisi2
	lsls	r7, r4, #30
	.loc 10 237 19 view .LVU872
	mov	r2, r3
	.loc 10 236 26 view .LVU873
	beq	.L281
.LBB892:
.LBB888:
	.loc 10 87 8 view .LVU874
	cmp	r0, r3
.LBE888:
.LBE892:
	.loc 10 237 19 view .LVU875
	str	r3, [ip, #4]
	.loc 10 238 9 is_stmt 1 view .LVU876
	.loc 10 236 11 view .LVU877
.LVL197:
.LBB893:
	.loc 10 86 12 view .LVU878
.LBB889:
	.loc 10 87 5 view .LVU879
	.loc 10 87 8 is_stmt 0 view .LVU880
	beq	.L236
	b	.L258
.LVL198:
.L281:
	.loc 10 87 8 view .LVU881
.LBE889:
.LBE893:
	.loc 10 240 5 is_stmt 1 view .LVU882
.LBE894:
.LBE896:
	.loc 10 546 13 view .LVU883
.LBB897:
.LBI897:
	.loc 10 249 12 view .LVU884
.LBB898:
	.loc 10 250 5 view .LVU885
.LBB899:
.LBI899:
	.loc 10 86 12 view .LVU886
.LBB900:
	.loc 10 87 5 view .LVU887
	.loc 10 87 8 is_stmt 0 view .LVU888
	cmp	r0, r6
	bls	.L251
	.loc 10 90 9 is_stmt 1 view .LVU889
.LVL199:
	.loc 10 90 9 is_stmt 0 view .LVU890
.LBE900:
.LBE899:
.LBE898:
.LBE897:
	.loc 10 110 5 is_stmt 1 view .LVU891
.LBB902:
.LBB901:
	.loc 10 250 23 is_stmt 0 view .LVU892
	cmp	lr, #45
	bne	.L251
	.loc 10 251 9 is_stmt 1 view .LVU893
	.loc 10 251 19 is_stmt 0 view .LVU894
	adds	r2, r6, #1
	str	r2, [ip, #4]
	.loc 10 252 9 is_stmt 1 view .LVU895
	.loc 10 252 16 is_stmt 0 view .LVU896
	b	.L248
.LVL200:
.L279:
	.loc 10 252 16 view .LVU897
.LBE901:
.LBE902:
.LBB903:
.LBB849:
	.loc 10 251 9 is_stmt 1 view .LVU898
	.loc 10 251 19 is_stmt 0 view .LVU899
	str	r4, [ip, #4]
	.loc 10 252 9 is_stmt 1 view .LVU900
.LVL201:
	.loc 10 252 9 is_stmt 0 view .LVU901
.LBE849:
.LBE903:
	.loc 10 542 9 is_stmt 1 view .LVU902
.LBB904:
.LBI904:
	.loc 10 192 12 view .LVU903
	.loc 10 192 12 is_stmt 0 view .LVU904
.LBE904:
.LBB905:
.LBB850:
	.loc 10 252 16 view .LVU905
	b	.L248
.LVL202:
.L280:
	.loc 10 252 16 view .LVU906
.LBE850:
.LBE905:
	.loc 10 551 36 view .LVU907
	ldr	r3, [r1, #4]
.LBB906:
.LBB860:
	.loc 10 194 19 view .LVU908
	mov	r2, r4
	b	.L241
.L283:
	.align	2
.L282:
	.word	_ctype_+1
.LBE860:
.LBE906:
	.cfi_endproc
.LFE271:
	.size	scpiLex_SuffixProgramData, .-scpiLex_SuffixProgramData
	.section	.text.skipQuoteProgramData,"ax",%progbits
	.align	1
	.p2align 2,,3
	.syntax unified
	.thumb
	.thumb_func
	.fpu fpv4-sp-d16
	.type	skipQuoteProgramData, %function
skipQuoteProgramData:
.LVL203:
.LFB274:
	.loc 10 634 67 is_stmt 1 view -0
	.cfi_startproc
	@ args = 0, pretend = 0, frame = 0
	@ frame_needed = 0, uses_anonymous_args = 0
	@ link register save eliminated.
	.loc 10 635 5 view .LVU910
	.loc 10 635 11 view .LVU911
.LBB907:
.LBI907:
	.loc 10 86 12 view .LVU912
.LBB908:
	.loc 10 87 5 view .LVU913
	.loc 10 87 47 is_stmt 0 view .LVU914
	ldrd	r2, r3, [r0]
.LBE908:
.LBE907:
	.loc 10 634 67 view .LVU915
	push	{r4}
	.cfi_def_cfa_offset 4
	.cfi_offset 4, -4
.LBB912:
.LBB909:
	.loc 10 87 24 view .LVU916
	ldr	r4, [r0, #8]
	add	r2, r2, r4
	.loc 10 87 8 view .LVU917
	cmp	r3, r2
	bcs	.L284
.LVL204:
.L285:
	.loc 10 87 8 view .LVU918
.LBE909:
.LBE912:
	.loc 10 110 5 is_stmt 1 view .LVU919
.LBB913:
.LBB910:
	.loc 10 90 9 view .LVU920
.LBE910:
.LBE913:
	.loc 10 636 9 view .LVU921
	.loc 10 636 12 is_stmt 0 view .LVU922
	ldrsb	ip, [r3]
	.loc 10 636 35 view .LVU923
	ldrb	r4, [r3]	@ zero_extendqisi2
.LVL205:
	.loc 10 631 5 is_stmt 1 view .LVU924
	.loc 10 636 12 is_stmt 0 view .LVU925
	cmp	ip, #0
	blt	.L284
	.loc 10 637 13 is_stmt 1 view .LVU926
	.loc 10 636 40 is_stmt 0 view .LVU927
	cmp	r4, r1
	beq	.L287
	.loc 10 637 23 view .LVU928
	adds	r3, r3, #1
	str	r3, [r0, #4]
.L288:
	.loc 10 635 11 is_stmt 1 view .LVU929
.LBB914:
	.loc 10 86 12 view .LVU930
.LBB911:
	.loc 10 87 5 view .LVU931
	.loc 10 87 8 is_stmt 0 view .LVU932
	cmp	r3, r2
	bcc	.L285
.L284:
	.loc 10 87 8 view .LVU933
.LBE911:
.LBE914:
	.loc 10 650 1 view .LVU934
	ldr	r4, [sp], #4
	.cfi_remember_state
	.cfi_restore 4
	.cfi_def_cfa_offset 0
	bx	lr
.L287:
	.cfi_restore_state
	.loc 10 638 16 is_stmt 1 view .LVU935
.LVL206:
	.loc 10 110 5 view .LVU936
	.loc 10 639 13 view .LVU937
.LBB915:
.LBB916:
	.loc 10 90 9 view .LVU938
	.loc 10 90 9 is_stmt 0 view .LVU939
.LBE916:
.LBE915:
.LBB919:
.LBI919:
	.loc 10 109 12 is_stmt 1 view .LVU940
.LBB920:
	.loc 10 110 5 view .LVU941
	.loc 10 110 5 is_stmt 0 view .LVU942
.LBE920:
.LBE919:
	.loc 10 641 17 is_stmt 1 view .LVU943
	.loc 10 639 23 is_stmt 0 view .LVU944
	adds	r4, r3, #1
.LBB921:
.LBB917:
	.loc 10 87 8 view .LVU945
	cmp	r4, r2
.LBE917:
.LBE921:
	.loc 10 639 23 view .LVU946
	str	r4, [r0, #4]
	.loc 10 640 13 is_stmt 1 view .LVU947
.LVL207:
.LBB922:
.LBI915:
	.loc 10 86 12 view .LVU948
.LBB918:
	.loc 10 87 5 view .LVU949
	.loc 10 87 8 is_stmt 0 view .LVU950
	bcs	.L289
.LBE918:
.LBE922:
	.loc 10 640 31 view .LVU951
	ldrb	r4, [r3, #1]	@ zero_extendqisi2
	cmp	r4, r1
	bne	.L289
	.loc 10 641 27 view .LVU952
	adds	r3, r3, #2
	str	r3, [r0, #4]
	b	.L288
.L289:
.LVL208:
	.loc 10 643 17 is_stmt 1 view .LVU953
	.loc 10 650 1 is_stmt 0 view .LVU954
	ldr	r4, [sp], #4
	.cfi_restore 4
	.cfi_def_cfa_offset 0
	.loc 10 643 27 view .LVU955
	str	r3, [r0, #4]
	.loc 10 644 17 is_stmt 1 view .LVU956
	.loc 10 650 1 is_stmt 0 view .LVU957
	bx	lr
	.cfi_endproc
.LFE274:
	.size	skipQuoteProgramData, .-skipQuoteProgramData
	.section	.rodata.SCPI_ResultCharacters.isra.0.str1.4,"aMS",%progbits,1
	.align	2
.LC17:
	.ascii	",\000"
	.section	.text.SCPI_ResultCharacters.isra.0,"ax",%progbits
	.align	1
	.p2align 2,,3
	.syntax unified
	.thumb
	.thumb_func
	.fpu fpv4-sp-d16
	.type	SCPI_ResultCharacters.isra.0, %function
SCPI_ResultCharacters.isra.0:
.LVL209:
.LFB115:
	.file 11 "/Users/margaret/Github/tinylogicfriend/lib/tinyusb/lib/libscpi/src/parser.c"
	.loc 11 361 8 is_stmt 1 view -0
	.cfi_startproc
	@ args = 0, pretend = 0, frame = 0
	@ frame_needed = 0, uses_anonymous_args = 0
	.loc 11 361 8 is_stmt 0 view .LVU959
	push	{r4, r5, r6, lr}
	.cfi_def_cfa_offset 16
	.cfi_offset 4, -16
	.cfi_offset 5, -12
	.cfi_offset 6, -8
	.cfi_offset 14, -4
.LBB939:
.LBB940:
	.loc 11 83 8 is_stmt 1 view .LVU960
	ldr	r3, [r0, #48]
	cmp	r3, #0
.LBE940:
.LBE939:
	.loc 11 361 8 view .LVU961
	mov	r4, r0
.LVL210:
	.loc 11 361 8 is_stmt 0 view .LVU962
	mov	r6, r1
	mov	r5, r2
.LBB948:
.LBB946:
	.loc 11 83 8 is_stmt 1 view .LVU963
	bgt	.L301
.LVL211:
.L295:
	.loc 11 83 8 is_stmt 0 view .LVU964
.LBE946:
.LBE948:
.LBB949:
.LBB950:
	.loc 11 57 8 is_stmt 1 view .LVU965
	cbz	r5, .L296
.LVL212:
.LBB951:
.LBB952:
	.loc 11 58 34 view .LVU966
	ldr	r3, [r4, #44]
	.loc 11 58 16 view .LVU967
	mov	r2, r5
	ldr	r3, [r3, #4]
	mov	r1, r6
	mov	r0, r4
	blx	r3
.LVL213:
.L296:
	.loc 11 58 16 is_stmt 0 view .LVU968
.LBE952:
.LBE951:
.LBE950:
.LBE949:
	.loc 11 365 26 is_stmt 1 view .LVU969
	ldr	r3, [r4, #48]
	adds	r3, r3, #1
	str	r3, [r4, #48]
	.loc 11 367 1 view .LVU970
	pop	{r4, r5, r6, pc}
.LVL214:
.L301:
.LBB953:
.LBB947:
.LBB941:
.LBB942:
.LBB943:
.LBB944:
.LBB945:
	.loc 11 58 34 view .LVU971
	ldr	r3, [r0, #44]
	.loc 11 58 16 view .LVU972
	ldr	r1, .L302
.LVL215:
	.loc 11 58 16 is_stmt 0 view .LVU973
	ldr	r3, [r3, #4]
	movs	r2, #1
.LVL216:
	.loc 11 58 16 view .LVU974
	blx	r3
.LVL217:
	.loc 11 58 16 view .LVU975
	b	.L295
.L303:
	.align	2
.L302:
	.word	.LC17
.LBE945:
.LBE944:
.LBE943:
.LBE942:
.LBE941:
.LBE947:
.LBE953:
	.cfi_endproc
.LFE115:
	.size	SCPI_ResultCharacters.isra.0, .-SCPI_ResultCharacters.isra.0
	.section	.rodata.SCPI_SystemVersionQ.str1.4,"aMS",%progbits,1
	.align	2
.LC18:
	.ascii	"1999.0\000"
	.section	.text.SCPI_SystemVersionQ,"ax",%progbits
	.align	1
	.p2align 2,,3
	.syntax unified
	.thumb
	.thumb_func
	.fpu fpv4-sp-d16
	.type	SCPI_SystemVersionQ, %function
SCPI_SystemVersionQ:
.LVL218:
.LFB276:
	.file 12 "/Users/margaret/Github/tinylogicfriend/lib/tinyusb/lib/libscpi/src/minimal.c"
	.loc 12 71 53 is_stmt 1 view -0
	.cfi_startproc
	@ args = 0, pretend = 0, frame = 0
	@ frame_needed = 0, uses_anonymous_args = 0
	.loc 12 72 5 view .LVU977
	.loc 12 71 53 is_stmt 0 view .LVU978
	push	{r4, lr}
	.cfi_def_cfa_offset 8
	.cfi_offset 4, -8
	.cfi_offset 14, -4
.LBB968:
.LBB969:
.LBB970:
.LBB971:
	.loc 11 83 8 view .LVU979
	ldr	r3, [r0, #48]
	cmp	r3, #0
.LBE971:
.LBE970:
.LBE969:
.LBE968:
	.loc 12 71 53 view .LVU980
	mov	r4, r0
.LVL219:
.LBB984:
.LBI968:
	.loc 11 361 8 is_stmt 1 view .LVU981
.LBB982:
.LBB978:
.LBB977:
	.loc 11 83 8 is_stmt 0 view .LVU982
	ble	.L305
.LVL220:
.LBB972:
.LBI972:
	.loc 11 82 15 is_stmt 1 view .LVU983
.LBB973:
.LBB974:
.LBB975:
.LBI975:
	.loc 11 56 15 view .LVU984
.LBB976:
	.loc 11 58 34 is_stmt 0 view .LVU985
	ldr	r3, [r0, #44]
	.loc 11 58 16 view .LVU986
	ldr	r1, .L307
	ldr	r3, [r3, #4]
	movs	r2, #1
	blx	r3
.LVL221:
.L305:
	.loc 11 58 16 view .LVU987
.LBE976:
.LBE975:
.LBE974:
.LBE973:
.LBE972:
.LBE977:
.LBE978:
.LBB979:
.LBB980:
.LBI980:
	.loc 11 56 15 is_stmt 1 view .LVU988
.LBB981:
	.loc 11 58 34 is_stmt 0 view .LVU989
	ldr	r3, [r4, #44]
	.loc 11 58 16 view .LVU990
	ldr	r1, .L307+4
	ldr	r3, [r3, #4]
	movs	r2, #6
	mov	r0, r4
	blx	r3
.LVL222:
	.loc 11 58 16 view .LVU991
.LBE981:
.LBE980:
.LBE979:
	.loc 11 365 26 view .LVU992
	ldr	r3, [r4, #48]
.LBE982:
.LBE984:
	.loc 12 74 1 view .LVU993
	movs	r0, #1
.LBB985:
.LBB983:
	.loc 11 365 26 view .LVU994
	add	r3, r3, r0
	str	r3, [r4, #48]
.LVL223:
	.loc 11 365 26 view .LVU995
.LBE983:
.LBE985:
	.loc 12 73 5 is_stmt 1 view .LVU996
	.loc 12 74 1 is_stmt 0 view .LVU997
	pop	{r4, pc}
.LVL224:
.L308:
	.loc 12 74 1 view .LVU998
	.align	2
.L307:
	.word	.LC17
	.word	.LC18
	.cfi_endproc
.LFE276:
	.size	SCPI_SystemVersionQ, .-SCPI_SystemVersionQ
	.section	.text.scpiParser_parseProgramData,"ax",%progbits
	.align	1
	.p2align 2,,3
	.syntax unified
	.thumb
	.thumb_func
	.fpu fpv4-sp-d16
	.type	scpiParser_parseProgramData, %function
scpiParser_parseProgramData:
.LVL225:
.LFB277:
	.loc 11 1349 76 is_stmt 1 view -0
	.cfi_startproc
	@ args = 0, pretend = 0, frame = 16
	@ frame_needed = 0, uses_anonymous_args = 0
	.loc 11 1349 76 is_stmt 0 view .LVU1000
	push	{r4, r5, r6, r7, r8, r9, lr}
	.cfi_def_cfa_offset 28
	.cfi_offset 4, -28
	.cfi_offset 5, -24
	.cfi_offset 6, -20
	.cfi_offset 7, -16
	.cfi_offset 8, -12
	.cfi_offset 9, -8
	.cfi_offset 14, -4
	mov	r4, r0
	.loc 11 1350 5 is_stmt 1 view .LVU1001
	.loc 11 1351 5 view .LVU1002
.LVL226:
	.loc 11 1352 5 view .LVU1003
	.loc 11 1353 5 view .LVU1004
	.loc 11 1354 5 view .LVU1005
	.loc 11 1355 5 view .LVU1006
	.loc 11 1349 76 is_stmt 0 view .LVU1007
	sub	sp, sp, #20
	.cfi_def_cfa_offset 48
	.loc 11 1349 76 view .LVU1008
	mov	r5, r1
	.loc 11 1355 16 view .LVU1009
	add	r1, sp, #4
.LVL227:
	.loc 11 1355 16 view .LVU1010
	bl	scpiLex_WhiteSpace
.LVL228:
.LBB1070:
.LBB1071:
	.loc 10 599 23 view .LVU1011
	ldr	r3, [r4, #4]
	.loc 10 599 16 view .LVU1012
	str	r3, [r5, #4]
.LBB1072:
.LBB1073:
.LBB1074:
.LBB1075:
	.loc 10 87 24 view .LVU1013
	ldr	r2, [r4]
	ldr	r1, [r4, #8]
	add	r2, r2, r1
	.loc 10 87 8 view .LVU1014
	cmp	r3, r2
.LBE1075:
.LBE1074:
.LBE1073:
.LBE1072:
.LBE1071:
.LBE1070:
	.loc 11 1355 16 view .LVU1015
	mov	r7, r0
.LVL229:
	.loc 11 1357 5 is_stmt 1 view .LVU1016
	.loc 11 1357 22 view .LVU1017
.LBB1157:
.LBI1070:
	.loc 10 597 5 view .LVU1018
.LBB1152:
	.loc 10 598 5 view .LVU1019
	.loc 10 599 5 view .LVU1020
	.loc 10 600 5 view .LVU1021
.LBB1083:
.LBI1072:
	.loc 10 249 12 view .LVU1022
.LBB1080:
	.loc 10 250 5 view .LVU1023
.LBB1077:
.LBI1074:
	.loc 10 86 12 view .LVU1024
.LBB1076:
	.loc 10 87 5 view .LVU1025
	.loc 10 87 8 is_stmt 0 view .LVU1026
	bcs	.L310
	.loc 10 90 9 is_stmt 1 view .LVU1027
.LVL230:
	.loc 10 90 9 is_stmt 0 view .LVU1028
.LBE1076:
.LBE1077:
.LBB1078:
.LBI1078:
	.loc 10 109 12 is_stmt 1 view .LVU1029
.LBB1079:
	.loc 10 110 5 view .LVU1030
	.loc 10 110 5 is_stmt 0 view .LVU1031
.LBE1079:
.LBE1078:
	.loc 10 250 23 view .LVU1032
	ldrb	r1, [r3]	@ zero_extendqisi2
	cmp	r1, #35
	beq	.L386
.LVL231:
.L310:
	.loc 10 250 23 view .LVU1033
.LBE1080:
.LBE1083:
	.loc 10 622 9 is_stmt 1 view .LVU1034
	.loc 10 622 21 is_stmt 0 view .LVU1035
	movs	r2, #26
	strb	r2, [r5]
	.loc 10 623 9 is_stmt 1 view .LVU1036
	.loc 10 623 20 is_stmt 0 view .LVU1037
	str	r3, [r4, #4]
	.loc 10 624 9 is_stmt 1 view .LVU1038
	.loc 10 624 20 is_stmt 0 view .LVU1039
	movs	r3, #0
	str	r3, [r5, #8]
	.loc 10 626 5 is_stmt 1 view .LVU1040
.L328:
.LVL232:
	.loc 10 626 5 is_stmt 0 view .LVU1041
.LBE1152:
.LBE1157:
	.loc 11 1358 5 is_stmt 1 discriminator 1 view .LVU1042
	.loc 11 1358 22 discriminator 1 view .LVU1043
	.loc 11 1358 31 is_stmt 0 discriminator 1 view .LVU1044
	mov	r1, r5
	mov	r0, r4
	bl	scpiLex_CharacterProgramData
.LVL233:
	.loc 11 1359 5 is_stmt 1 discriminator 1 view .LVU1045
	.loc 11 1359 8 is_stmt 0 discriminator 1 view .LVU1046
	cmp	r0, #0
	bne	.L356
.LVL234:
	.loc 11 1360 9 is_stmt 1 view .LVU1047
	.loc 11 1360 18 is_stmt 0 view .LVU1048
	mov	r0, r4
.LVL235:
	.loc 11 1360 18 view .LVU1049
	bl	scpiLex_DecimalNumericProgramData
.LVL236:
	.loc 11 1361 9 is_stmt 1 view .LVU1050
	.loc 11 1361 12 is_stmt 0 view .LVU1051
	mov	r6, r0
	cmp	r0, #0
	bne	.L330
.LVL237:
.L333:
	.loc 11 1372 22 is_stmt 1 view .LVU1052
.LBB1158:
.LBI1158:
	.loc 10 666 5 view .LVU1053
.LBB1159:
	.loc 10 667 5 view .LVU1054
	.loc 10 667 23 is_stmt 0 view .LVU1055
	ldr	r3, [r4, #4]
	.loc 10 667 16 view .LVU1056
	str	r3, [r5, #4]
	.loc 10 669 5 is_stmt 1 view .LVU1057
.LVL238:
.LBB1160:
.LBI1160:
	.loc 10 86 12 view .LVU1058
.LBB1161:
	.loc 10 87 5 view .LVU1059
	.loc 10 87 24 is_stmt 0 view .LVU1060
	ldr	r2, [r4]
	ldr	r1, [r4, #8]
	add	r2, r2, r1
	.loc 10 87 8 view .LVU1061
	cmp	r3, r2
	bcs	.L355
	.loc 10 90 9 is_stmt 1 view .LVU1062
.LVL239:
	.loc 10 90 9 is_stmt 0 view .LVU1063
.LBE1161:
.LBE1160:
	.loc 10 670 9 is_stmt 1 view .LVU1064
.LBB1162:
.LBI1162:
	.loc 10 109 12 view .LVU1065
.LBB1163:
	.loc 10 110 5 view .LVU1066
	.loc 10 110 23 is_stmt 0 view .LVU1067
	ldrb	r1, [r3]	@ zero_extendqisi2
.LVL240:
	.loc 10 110 23 view .LVU1068
.LBE1163:
.LBE1162:
	.loc 10 670 12 view .LVU1069
	cmp	r1, #34
	beq	.L387
	.loc 10 680 16 is_stmt 1 view .LVU1070
.LVL241:
	.loc 10 680 16 is_stmt 0 view .LVU1071
.LBE1159:
.LBE1158:
	.loc 10 110 5 is_stmt 1 view .LVU1072
.LBB1179:
.LBB1176:
	.loc 10 680 19 is_stmt 0 view .LVU1073
	cmp	r1, #39
	beq	.L388
.L355:
	.loc 10 699 9 is_stmt 1 view .LVU1074
	.loc 10 699 21 is_stmt 0 view .LVU1075
	movs	r2, #26
	strb	r2, [r5]
	.loc 10 700 9 is_stmt 1 view .LVU1076
	.loc 10 700 20 is_stmt 0 view .LVU1077
	str	r3, [r4, #4]
	.loc 10 701 9 is_stmt 1 view .LVU1078
	.loc 10 701 20 is_stmt 0 view .LVU1079
	movs	r3, #0
	str	r3, [r5, #8]
	.loc 10 704 5 is_stmt 1 view .LVU1080
.LVL242:
	.loc 10 704 5 is_stmt 0 view .LVU1081
.LBE1176:
.LBE1179:
	.loc 11 1373 5 is_stmt 1 view .LVU1082
	.loc 11 1373 22 view .LVU1083
.LBB1180:
.LBI1180:
	.loc 10 718 5 view .LVU1084
.LBB1181:
	.loc 10 719 5 view .LVU1085
	.loc 10 720 5 view .LVU1086
	.loc 10 721 5 view .LVU1087
	.loc 10 721 18 is_stmt 0 view .LVU1088
	ldr	r2, [r4, #4]
.LVL243:
	.loc 10 722 5 is_stmt 1 view .LVU1089
	.loc 10 723 5 view .LVU1090
	.loc 10 723 16 is_stmt 0 view .LVU1091
	str	r2, [r5, #4]
	.loc 10 725 5 is_stmt 1 view .LVU1092
.LVL244:
.LBB1182:
.LBI1182:
	.loc 10 249 12 view .LVU1093
.LBB1183:
	.loc 10 250 5 view .LVU1094
.LBB1184:
.LBI1184:
	.loc 10 86 12 view .LVU1095
.LBB1185:
	.loc 10 87 5 view .LVU1096
	.loc 10 87 24 is_stmt 0 view .LVU1097
	ldr	r0, [r4]
	ldr	r1, [r4, #8]
	add	r1, r1, r0
	.loc 10 87 8 view .LVU1098
	cmp	r2, r1
	bcc	.L389
.LVL245:
.L358:
	.loc 10 87 8 view .LVU1099
.LBE1185:
.LBE1184:
	mov	r3, r2
.LVL246:
.L338:
	.loc 10 87 8 view .LVU1100
.LBE1183:
.LBE1182:
	.loc 10 768 9 is_stmt 1 view .LVU1101
	.loc 10 768 21 is_stmt 0 view .LVU1102
	movs	r1, #26
	strb	r1, [r5]
	.loc 10 769 9 is_stmt 1 view .LVU1103
	.loc 10 769 20 is_stmt 0 view .LVU1104
	str	r3, [r4, #4]
	.loc 10 770 9 is_stmt 1 view .LVU1105
	.loc 10 770 20 is_stmt 0 view .LVU1106
	movs	r6, #0
	.loc 10 773 31 view .LVU1107
	ldr	r3, [r5, #4]
	.loc 10 770 20 view .LVU1108
	str	r6, [r5, #8]
.L345:
	.loc 10 773 5 is_stmt 1 view .LVU1109
	.loc 10 773 37 is_stmt 0 view .LVU1110
	subs	r3, r3, r2
.LVL247:
	.loc 10 773 37 view .LVU1111
.LBE1181:
.LBE1180:
	.loc 11 1374 5 is_stmt 1 view .LVU1112
	.loc 11 1374 8 is_stmt 0 view .LVU1113
	adds	r3, r3, r6
.LVL248:
	.loc 11 1374 8 view .LVU1114
	bne	.L359
	.loc 11 1374 22 is_stmt 1 view .LVU1115
.LVL249:
.LBB1214:
.LBI1214:
	.loc 10 806 5 view .LVU1116
.LBB1215:
	.loc 10 807 5 view .LVU1117
	.loc 10 807 23 is_stmt 0 view .LVU1118
	ldr	r3, [r4, #4]
.LVL250:
	.loc 10 807 16 view .LVU1119
	str	r3, [r5, #4]
	.loc 10 809 5 is_stmt 1 view .LVU1120
.LVL251:
.LBB1216:
.LBI1216:
	.loc 10 86 12 view .LVU1121
.LBB1217:
	.loc 10 87 5 view .LVU1122
	.loc 10 87 24 is_stmt 0 view .LVU1123
	ldr	r2, [r4]
	ldr	r1, [r4, #8]
	add	r2, r2, r1
	.loc 10 87 8 view .LVU1124
	cmp	r3, r2
	bcc	.L390
.LVL252:
.L346:
	.loc 10 87 8 view .LVU1125
.LBE1217:
.LBE1216:
	.loc 10 821 5 is_stmt 1 view .LVU1126
	.loc 10 821 8 is_stmt 0 view .LVU1127
	cmp	r6, #0
	ble	.L352
	.loc 10 822 9 is_stmt 1 view .LVU1128
	.loc 10 822 21 is_stmt 0 view .LVU1129
	movs	r3, #16
	strb	r3, [r5]
.LVL253:
.L329:
	.loc 10 822 21 view .LVU1130
.LBE1215:
.LBE1214:
	.loc 11 1376 5 is_stmt 1 view .LVU1131
	.loc 11 1376 16 is_stmt 0 view .LVU1132
	add	r1, sp, #4
	mov	r0, r4
	bl	scpiLex_WhiteSpace
.LVL254:
	.loc 11 1378 5 is_stmt 1 view .LVU1133
	.loc 11 1376 13 is_stmt 0 view .LVU1134
	add	r0, r0, r7
.LVL255:
	.loc 11 1378 19 view .LVU1135
	add	r0, r0, r6
.LVL256:
	.loc 11 1379 1 view .LVU1136
	add	sp, sp, #20
	.cfi_remember_state
	.cfi_def_cfa_offset 28
	@ sp needed
	pop	{r4, r5, r6, r7, r8, r9, pc}
.LVL257:
.L386:
	.cfi_restore_state
.LBB1253:
.LBB1153:
.LBB1084:
.LBB1081:
	.loc 10 251 9 is_stmt 1 view .LVU1137
	.loc 10 251 19 is_stmt 0 view .LVU1138
	adds	r1, r3, #1
.LBE1081:
.LBE1084:
.LBB1085:
.LBB1086:
	.loc 10 87 8 view .LVU1139
	cmp	r2, r1
.LBE1086:
.LBE1085:
.LBB1088:
.LBB1082:
	.loc 10 251 19 view .LVU1140
	str	r1, [r4, #4]
	.loc 10 252 9 is_stmt 1 view .LVU1141
.LVL258:
	.loc 10 252 9 is_stmt 0 view .LVU1142
.LBE1082:
.LBE1088:
	.loc 10 601 9 is_stmt 1 view .LVU1143
.LBB1089:
.LBI1085:
	.loc 10 86 12 view .LVU1144
.LBB1087:
	.loc 10 87 5 view .LVU1145
	.loc 10 87 8 is_stmt 0 view .LVU1146
	bls	.L384
	.loc 10 90 9 is_stmt 1 view .LVU1147
.LVL259:
	.loc 10 90 9 is_stmt 0 view .LVU1148
.LBE1087:
.LBE1089:
	.loc 10 602 13 is_stmt 1 view .LVU1149
.LBB1090:
.LBI1090:
	.loc 10 127 12 view .LVU1150
.LBB1091:
	.loc 10 128 5 view .LVU1151
	.loc 10 128 21 is_stmt 0 view .LVU1152
	ldrb	r1, [r3, #1]	@ zero_extendqisi2
.LVL260:
	.loc 10 128 21 view .LVU1153
	and	r1, r1, #223
.LVL261:
	.loc 10 128 21 view .LVU1154
	cmp	r1, #72
	beq	.L391
.LVL262:
	.loc 10 128 21 view .LVU1155
.LBE1091:
.LBE1090:
	.loc 10 606 20 is_stmt 1 view .LVU1156
.LBB1092:
.LBI1092:
	.loc 10 145 12 view .LVU1157
.LBB1093:
	.loc 10 146 5 view .LVU1158
	.loc 10 146 21 is_stmt 0 view .LVU1159
	cmp	r1, #81
	beq	.L392
.LVL263:
	.loc 10 146 21 view .LVU1160
.LBE1093:
.LBE1092:
	.loc 10 610 20 is_stmt 1 view .LVU1161
.LBB1094:
.LBI1094:
	.loc 10 136 12 view .LVU1162
.LBB1095:
	.loc 10 137 5 view .LVU1163
	.loc 10 137 21 is_stmt 0 view .LVU1164
	cmp	r1, #66
	bne	.L384
.LVL264:
	.loc 10 137 21 view .LVU1165
.LBE1095:
.LBE1094:
	.loc 10 611 17 is_stmt 1 view .LVU1166
	.loc 10 611 27 is_stmt 0 view .LVU1167
	adds	r1, r3, #2
.LBB1096:
.LBB1097:
.LBB1098:
.LBB1099:
	.loc 10 87 8 view .LVU1168
	cmp	r2, r1
.LBE1099:
.LBE1098:
.LBE1097:
.LBE1096:
	.loc 10 611 27 view .LVU1169
	str	r1, [r4, #4]
	.loc 10 612 17 is_stmt 1 view .LVU1170
.LVL265:
.LBB1114:
.LBI1096:
	.loc 10 582 12 view .LVU1171
.LBB1112:
	.loc 10 583 5 view .LVU1172
	.loc 10 584 5 view .LVU1173
	.loc 10 584 11 view .LVU1174
.LBB1104:
.LBI1098:
	.loc 10 86 12 view .LVU1175
.LBB1100:
	.loc 10 87 5 view .LVU1176
	.loc 10 87 8 is_stmt 0 view .LVU1177
	bls	.L384
	subs	r3, r2, r3
	subs	r3, r3, #2
.LBE1100:
.LBE1104:
	.loc 10 583 9 view .LVU1178
	movs	r2, #0
.LVL266:
.L325:
.LBB1105:
.LBB1101:
	.loc 10 90 9 is_stmt 1 view .LVU1179
.LBE1101:
.LBE1105:
	.loc 10 584 48 is_stmt 0 view .LVU1180
	ldrb	r0, [r1], #1	@ zero_extendqisi2
.LVL267:
.LBB1106:
.LBI1106:
	.loc 10 62 12 is_stmt 1 view .LVU1181
.LBB1107:
	.loc 10 63 5 view .LVU1182
	.loc 10 63 20 is_stmt 0 view .LVU1183
	subs	r0, r0, #48
.LVL268:
	.loc 10 63 8 view .LVU1184
	cmp	r0, #1
	bls	.L393
.LVL269:
.L324:
	.loc 10 63 8 view .LVU1185
.LBE1107:
.LBE1106:
	.loc 10 588 5 is_stmt 1 view .LVU1186
	.loc 10 588 5 is_stmt 0 view .LVU1187
.LBE1112:
.LBE1114:
	.loc 10 613 17 is_stmt 1 view .LVU1188
	.loc 10 613 29 is_stmt 0 view .LVU1189
	movs	r3, #8
	strb	r3, [r5]
.L317:
	.loc 10 618 5 is_stmt 1 view .LVU1190
	.loc 10 618 8 is_stmt 0 view .LVU1191
	cmp	r2, #0
	beq	.L384
	.loc 10 619 9 is_stmt 1 view .LVU1192
	.loc 10 619 20 is_stmt 0 view .LVU1193
	ldr	r6, [r5, #4]
	adds	r6, r6, #2
	str	r6, [r5, #4]
	.loc 10 620 9 is_stmt 1 view .LVU1194
	.loc 10 620 33 is_stmt 0 view .LVU1195
	ldr	r3, [r4, #4]
	subs	r6, r3, r6
	.loc 10 626 44 view .LVU1196
	cmp	r6, #0
	.loc 10 620 20 view .LVU1197
	str	r6, [r5, #8]
	.loc 10 626 5 is_stmt 1 view .LVU1198
	.loc 10 626 44 is_stmt 0 view .LVU1199
	it	gt
	addgt	r6, r6, #2
	bgt	.L329
	b	.L328
.LVL270:
.L389:
	.loc 10 626 44 view .LVU1200
.LBE1153:
.LBE1253:
.LBB1254:
.LBB1210:
.LBB1192:
.LBB1190:
.LBB1187:
.LBB1186:
	.loc 10 90 9 is_stmt 1 view .LVU1201
	.loc 10 90 9 is_stmt 0 view .LVU1202
.LBE1186:
.LBE1187:
.LBB1188:
.LBI1188:
	.loc 10 109 12 is_stmt 1 view .LVU1203
.LBB1189:
	.loc 10 110 5 view .LVU1204
	.loc 10 110 5 is_stmt 0 view .LVU1205
.LBE1189:
.LBE1188:
	.loc 10 250 23 view .LVU1206
	ldrb	r0, [r2]	@ zero_extendqisi2
	cmp	r0, #35
	bne	.L358
	.loc 10 251 9 is_stmt 1 view .LVU1207
	.loc 10 251 19 is_stmt 0 view .LVU1208
	adds	r0, r2, #1
.LBE1190:
.LBE1192:
.LBB1193:
.LBB1194:
	.loc 10 87 8 view .LVU1209
	cmp	r1, r0
.LBE1194:
.LBE1193:
.LBB1196:
.LBB1191:
	.loc 10 251 19 view .LVU1210
	str	r0, [r4, #4]
	.loc 10 252 9 is_stmt 1 view .LVU1211
.LVL271:
	.loc 10 252 9 is_stmt 0 view .LVU1212
.LBE1191:
.LBE1196:
	.loc 10 726 9 is_stmt 1 view .LVU1213
.LBB1197:
.LBI1193:
	.loc 10 86 12 view .LVU1214
.LBB1195:
	.loc 10 87 5 view .LVU1215
	.loc 10 87 8 is_stmt 0 view .LVU1216
	bls	.L339
	.loc 10 90 9 is_stmt 1 view .LVU1217
.LVL272:
	.loc 10 90 9 is_stmt 0 view .LVU1218
.LBE1195:
.LBE1197:
	.loc 10 726 55 view .LVU1219
	ldrb	r6, [r2, #1]	@ zero_extendqisi2
.LVL273:
.LBB1198:
.LBI1198:
	.loc 10 708 12 is_stmt 1 view .LVU1220
.LBB1199:
	.loc 10 709 5 view .LVU1221
	.loc 10 709 12 is_stmt 0 view .LVU1222
	ldr	ip, .L397
	.loc 10 709 23 view .LVU1223
	ldrb	r0, [ip, r6]	@ zero_extendqisi2
	lsls	r0, r0, #29
	bpl	.L340
	cmp	r6, #48
	beq	.L340
.LVL274:
	.loc 10 709 23 view .LVU1224
.LBE1199:
.LBE1198:
	.loc 10 728 13 is_stmt 1 view .LVU1225
	.loc 10 728 15 is_stmt 0 view .LVU1226
	subs	r6, r6, #48
.LVL275:
	.loc 10 729 13 is_stmt 1 view .LVU1227
	.loc 10 729 23 is_stmt 0 view .LVU1228
	adds	r0, r2, #2
	.loc 10 731 13 view .LVU1229
	cmp	r6, r3
	.loc 10 729 23 view .LVU1230
	str	r0, [r4, #4]
	.loc 10 731 13 is_stmt 1 view .LVU1231
	.loc 10 731 20 view .LVU1232
	.loc 10 731 13 is_stmt 0 view .LVU1233
	ble	.L341
.LVL276:
.L343:
.LBB1200:
.LBB1201:
	.loc 10 90 9 is_stmt 1 view .LVU1234
.LBE1201:
.LBE1200:
	.loc 10 733 21 view .LVU1235
.LBB1204:
.LBB1202:
	.loc 10 87 8 is_stmt 0 view .LVU1236
	cmp	r1, r0
.LBE1202:
.LBE1204:
	.loc 10 733 42 view .LVU1237
	add	r3, r3, r3, lsl #2
.LVL277:
	.loc 10 734 21 is_stmt 1 view .LVU1238
	mov	r8, r0
.LVL278:
	.loc 10 732 17 view .LVU1239
.LBB1205:
.LBI1200:
	.loc 10 86 12 view .LVU1240
.LBB1203:
	.loc 10 87 5 view .LVU1241
	.loc 10 87 8 is_stmt 0 view .LVU1242
	beq	.L339
.LBE1203:
.LBE1205:
	.loc 10 732 38 view .LVU1243
	ldrb	lr, [r0], #1	@ zero_extendqisi2
	.loc 10 732 35 view .LVU1244
	ldrb	r9, [ip, lr]	@ zero_extendqisi2
	.loc 10 734 60 view .LVU1245
	sub	lr, lr, #48
	.loc 10 732 35 view .LVU1246
	tst	r9, #4
	.loc 10 734 42 view .LVU1247
	add	r3, lr, r3, lsl #1
.LVL279:
	.loc 10 735 21 is_stmt 1 view .LVU1248
	.loc 10 732 35 is_stmt 0 view .LVU1249
	beq	.L342
	.loc 10 731 13 view .LVU1250
	subs	r6, r6, #1
.LVL280:
	.loc 10 735 31 view .LVU1251
	str	r0, [r4, #4]
	.loc 10 731 27 is_stmt 1 view .LVU1252
.LVL281:
	.loc 10 731 20 view .LVU1253
	.loc 10 731 13 is_stmt 0 view .LVU1254
	bne	.L343
	.loc 10 734 42 view .LVU1255
	mov	r6, r3
.LVL282:
.L344:
	.loc 10 742 17 is_stmt 1 view .LVU1256
	.loc 10 742 28 is_stmt 0 view .LVU1257
	ldr	r3, [r4, #4]
	adds	r0, r3, r6
	.loc 10 743 20 view .LVU1258
	cmp	r1, r0
	.loc 10 742 28 view .LVU1259
	str	r0, [r4, #4]
	.loc 10 743 17 is_stmt 1 view .LVU1260
	.loc 10 743 20 is_stmt 0 view .LVU1261
	bcc	.L339
	.loc 10 744 21 is_stmt 1 view .LVU1262
	.loc 10 760 21 is_stmt 0 view .LVU1263
	movs	r1, #13
	.loc 10 745 32 view .LVU1264
	strd	r3, r6, [r5, #4]
	.loc 10 746 21 is_stmt 1 view .LVU1265
.LVL283:
	.loc 10 758 5 view .LVU1266
	.loc 10 760 9 view .LVU1267
	.loc 10 760 21 is_stmt 0 view .LVU1268
	strb	r1, [r5]
	b	.L345
.LVL284:
.L390:
	.loc 10 760 21 view .LVU1269
.LBE1210:
.LBE1254:
.LBB1255:
.LBB1250:
.LBB1219:
.LBB1218:
	.loc 10 90 9 is_stmt 1 view .LVU1270
	.loc 10 90 9 is_stmt 0 view .LVU1271
.LBE1218:
.LBE1219:
.LBB1220:
.LBI1220:
	.loc 10 109 12 is_stmt 1 view .LVU1272
.LBB1221:
	.loc 10 110 5 view .LVU1273
	.loc 10 110 5 is_stmt 0 view .LVU1274
.LBE1221:
.LBE1220:
	.loc 10 809 23 view .LVU1275
	ldrb	r1, [r3]	@ zero_extendqisi2
	cmp	r1, #40
	bne	.L346
	.loc 10 810 9 is_stmt 1 view .LVU1276
	.loc 10 810 19 is_stmt 0 view .LVU1277
	adds	r3, r3, #1
.LBB1222:
.LBB1223:
.LBB1224:
.LBB1225:
	.loc 10 87 8 view .LVU1278
	cmp	r2, r3
.LBE1225:
.LBE1224:
.LBE1223:
.LBE1222:
	.loc 10 810 19 view .LVU1279
	str	r3, [r4, #4]
	.loc 10 811 9 is_stmt 1 view .LVU1280
.LVL285:
.LBB1244:
.LBI1222:
	.loc 10 792 13 view .LVU1281
.LBB1242:
	.loc 10 793 5 view .LVU1282
	.loc 10 793 11 view .LVU1283
.LBB1230:
.LBI1224:
	.loc 10 86 12 view .LVU1284
.LBB1226:
	.loc 10 87 5 view .LVU1285
	.loc 10 87 8 is_stmt 0 view .LVU1286
	bls	.L352
.LVL286:
.L351:
	.loc 10 87 8 view .LVU1287
.LBE1226:
.LBE1230:
.LBB1231:
.LBB1232:
	.loc 10 779 9 is_stmt 1 view .LVU1288
	mov	r6, r3
.LBE1232:
.LBE1231:
.LBB1236:
.LBB1227:
	.loc 10 90 9 view .LVU1289
.LBE1227:
.LBE1236:
	.loc 10 793 59 is_stmt 0 view .LVU1290
	ldrb	r1, [r3], #1	@ zero_extendqisi2
.LVL287:
.LBB1237:
.LBI1231:
	.loc 10 777 12 is_stmt 1 view .LVU1291
.LBB1233:
	.loc 10 778 5 view .LVU1292
	.loc 10 778 21 is_stmt 0 view .LVU1293
	sub	r0, r1, #32
	.loc 10 778 8 view .LVU1294
	cmp	r0, #94
	.loc 10 780 17 view .LVU1295
	sub	ip, r1, #34
	.loc 10 778 8 view .LVU1296
	bls	.L394
.L348:
.LVL288:
	.loc 10 778 8 view .LVU1297
.LBE1233:
.LBE1237:
.LBE1242:
.LBE1244:
	.loc 10 813 9 is_stmt 1 view .LVU1298
.LBB1245:
.LBI1245:
	.loc 10 86 12 view .LVU1299
.LBB1246:
	.loc 10 87 5 view .LVU1300
	.loc 10 87 8 is_stmt 0 view .LVU1301
	cmp	r2, r6
	bls	.L352
	.loc 10 90 9 is_stmt 1 view .LVU1302
.LVL289:
	.loc 10 90 9 is_stmt 0 view .LVU1303
.LBE1246:
.LBE1245:
.LBE1250:
.LBE1255:
	.loc 10 110 5 is_stmt 1 view .LVU1304
.LBB1256:
.LBB1251:
	.loc 10 813 27 is_stmt 0 view .LVU1305
	cmp	r1, #41
	bne	.L352
.L354:
	.loc 10 814 13 is_stmt 1 view .LVU1306
	.loc 10 814 23 is_stmt 0 view .LVU1307
	adds	r6, r6, #1
	str	r6, [r4, #4]
	.loc 10 815 13 is_stmt 1 view .LVU1308
	.loc 10 815 37 is_stmt 0 view .LVU1309
	ldr	r3, [r5, #4]
	subs	r6, r6, r3
	.loc 10 815 24 view .LVU1310
	str	r6, [r5, #8]
	b	.L346
.LVL290:
.L394:
.LBB1248:
.LBB1243:
.LBB1238:
.LBB1234:
	.loc 10 779 12 view .LVU1311
	cmp	ip, #1
	.loc 10 781 17 view .LVU1312
	sub	r0, r1, #39
	.loc 10 779 12 view .LVU1313
	bls	.L348
	.loc 10 781 17 view .LVU1314
	cmp	r0, #1
	bls	.L352
	.loc 10 783 17 view .LVU1315
	cmp	r1, #41
	beq	.L350
	.loc 10 785 13 is_stmt 1 view .LVU1316
.LVL291:
	.loc 10 785 13 is_stmt 0 view .LVU1317
.LBE1234:
.LBE1238:
	.loc 10 794 9 is_stmt 1 view .LVU1318
.LBB1239:
.LBB1235:
	.loc 10 784 17 is_stmt 0 view .LVU1319
	cmp	r1, #59
	beq	.L352
.LBE1235:
.LBE1239:
.LBB1240:
.LBB1228:
	.loc 10 87 8 view .LVU1320
	cmp	r2, r3
.LBE1228:
.LBE1240:
	.loc 10 794 19 view .LVU1321
	str	r3, [r4, #4]
	.loc 10 793 11 is_stmt 1 view .LVU1322
.LVL292:
.LBB1241:
	.loc 10 86 12 view .LVU1323
.LBB1229:
	.loc 10 87 5 view .LVU1324
	.loc 10 87 8 is_stmt 0 view .LVU1325
	bne	.L351
.LVL293:
.L352:
	.loc 10 87 8 view .LVU1326
.LBE1229:
.LBE1241:
.LBE1243:
.LBE1248:
	.loc 10 824 9 is_stmt 1 view .LVU1327
	.loc 10 824 21 is_stmt 0 view .LVU1328
	movs	r3, #26
	strb	r3, [r5]
	.loc 10 825 9 is_stmt 1 view .LVU1329
	.loc 10 826 20 is_stmt 0 view .LVU1330
	movs	r6, #0
	.loc 10 825 27 view .LVU1331
	ldr	r3, [r5, #4]
	.loc 10 825 20 view .LVU1332
	str	r3, [r4, #4]
	.loc 10 826 9 is_stmt 1 view .LVU1333
	.loc 10 826 20 is_stmt 0 view .LVU1334
	str	r6, [r5, #8]
	.loc 10 829 5 is_stmt 1 view .LVU1335
.LVL294:
	.loc 10 829 5 is_stmt 0 view .LVU1336
	b	.L329
.LVL295:
.L356:
	.loc 10 829 5 view .LVU1337
.LBE1251:
.LBE1256:
	mov	r6, r0
	b	.L329
.LVL296:
.L341:
.LBB1257:
.LBB1211:
	.loc 10 741 13 is_stmt 1 view .LVU1338
.LBB1206:
.LBB1207:
	.loc 10 87 47 is_stmt 0 view .LVU1339
	it	ne
	movne	r8, r0
.LBE1207:
.LBE1206:
	.loc 10 741 16 view .LVU1340
	beq	.L344
.LVL297:
.L342:
	.loc 10 750 20 is_stmt 1 view .LVU1341
.LBB1209:
.LBI1206:
	.loc 10 86 12 view .LVU1342
.LBB1208:
	.loc 10 87 5 view .LVU1343
	.loc 10 87 8 is_stmt 0 view .LVU1344
	cmp	r1, r8
	bhi	.L340
.LVL298:
.L339:
	.loc 10 87 8 view .LVU1345
.LBE1208:
.LBE1209:
	.loc 10 763 9 is_stmt 1 view .LVU1346
	.loc 10 763 21 is_stmt 0 view .LVU1347
	movs	r3, #26
	strb	r3, [r5]
	.loc 10 764 9 is_stmt 1 view .LVU1348
	.loc 10 764 20 is_stmt 0 view .LVU1349
	movs	r3, #0
	str	r3, [r5, #8]
	.loc 10 765 9 is_stmt 1 view .LVU1350
	.loc 10 765 36 is_stmt 0 view .LVU1351
	ldr	r3, [r4]
	ldr	r1, [r4, #8]
	add	r3, r3, r1
	.loc 10 765 20 view .LVU1352
	str	r3, [r4, #4]
	.loc 10 773 31 view .LVU1353
	ldrd	r3, r6, [r5, #4]
	b	.L345
.LVL299:
.L384:
	.loc 10 773 31 view .LVU1354
.LBE1211:
.LBE1257:
.LBB1258:
.LBB1154:
	.loc 10 623 27 view .LVU1355
	ldr	r3, [r5, #4]
	b	.L310
.LVL300:
.L330:
	.loc 10 623 27 view .LVU1356
.LBE1154:
.LBE1258:
	.loc 11 1362 13 is_stmt 1 view .LVU1357
	.loc 11 1362 21 is_stmt 0 view .LVU1358
	add	r1, sp, #4
.LVL301:
	.loc 11 1362 21 view .LVU1359
	mov	r0, r4
.LVL302:
	.loc 11 1362 21 view .LVU1360
	bl	scpiLex_WhiteSpace
.LVL303:
	mov	r8, r0
.LVL304:
	.loc 11 1363 13 is_stmt 1 view .LVU1361
	.loc 11 1363 25 is_stmt 0 view .LVU1362
	mov	r0, r4
.LVL305:
	.loc 11 1363 25 view .LVU1363
	bl	scpiLex_SuffixProgramData
.LVL306:
	.loc 11 1364 13 is_stmt 1 view .LVU1364
	.loc 11 1364 16 is_stmt 0 view .LVU1365
	cmp	r0, #0
	.loc 11 1364 16 view .LVU1366
	ble	.L329
	.loc 11 1365 17 is_stmt 1 view .LVU1367
	.loc 11 1365 28 is_stmt 0 view .LVU1368
	ldr	r6, [r5, #8]
.LVL307:
	.loc 11 1365 37 view .LVU1369
	add	r0, r0, r8
.LVL308:
	.loc 11 1365 28 view .LVU1370
	add	r6, r6, r0
	.loc 11 1366 29 view .LVU1371
	movs	r3, #11
	.loc 11 1365 28 view .LVU1372
	str	r6, [r5, #8]
	.loc 11 1366 17 is_stmt 1 view .LVU1373
	.loc 11 1366 29 is_stmt 0 view .LVU1374
	strb	r3, [r5]
	.loc 11 1367 17 is_stmt 1 view .LVU1375
.LVL309:
	.loc 11 1372 5 view .LVU1376
	.loc 11 1372 8 is_stmt 0 view .LVU1377
	cmp	r6, #0
	bne	.L329
	b	.L333
.LVL310:
.L388:
.LBB1259:
.LBB1177:
	.loc 10 681 13 is_stmt 1 view .LVU1378
	.loc 10 681 23 is_stmt 0 view .LVU1379
	adds	r3, r3, #1
	str	r3, [r4, #4]
	.loc 10 682 13 is_stmt 1 view .LVU1380
	.loc 10 682 25 is_stmt 0 view .LVU1381
	movs	r3, #14
	strb	r3, [r5]
	.loc 10 683 13 is_stmt 1 view .LVU1382
.LVL311:
.LBB1164:
.LBI1164:
	.loc 10 656 13 view .LVU1383
.LBB1165:
	.loc 10 657 5 view .LVU1384
	mov	r0, r4
	bl	skipQuoteProgramData
.LVL312:
	.loc 10 657 5 is_stmt 0 view .LVU1385
.LBE1165:
.LBE1164:
	.loc 10 684 13 is_stmt 1 view .LVU1386
.LBB1166:
.LBI1166:
	.loc 10 86 12 view .LVU1387
.LBB1167:
	.loc 10 87 5 view .LVU1388
	.loc 10 87 24 is_stmt 0 view .LVU1389
	ldrd	r3, r2, [r4]
	ldr	r1, [r4, #8]
	add	r3, r3, r1
	.loc 10 87 8 view .LVU1390
	cmp	r2, r3
	bcs	.L337
.LVL313:
	.loc 10 90 9 is_stmt 1 view .LVU1391
	.loc 10 90 9 is_stmt 0 view .LVU1392
.LBE1167:
.LBE1166:
.LBB1168:
.LBI1168:
	.loc 10 109 12 is_stmt 1 view .LVU1393
.LBB1169:
	.loc 10 110 5 view .LVU1394
	.loc 10 110 5 is_stmt 0 view .LVU1395
.LBE1169:
.LBE1168:
	.loc 10 684 31 view .LVU1396
	ldrb	r3, [r2]	@ zero_extendqisi2
	cmp	r3, #39
	beq	.L385
.L337:
	.loc 10 688 17 is_stmt 1 view .LVU1397
	.loc 10 688 35 is_stmt 0 view .LVU1398
	ldr	r3, [r5, #4]
	b	.L355
.LVL314:
.L392:
	.loc 10 688 35 view .LVU1399
.LBE1177:
.LBE1259:
.LBB1260:
.LBB1155:
	.loc 10 607 17 is_stmt 1 view .LVU1400
	.loc 10 607 27 is_stmt 0 view .LVU1401
	adds	r1, r3, #2
.LBB1115:
.LBB1116:
.LBB1117:
.LBB1118:
	.loc 10 87 8 view .LVU1402
	cmp	r2, r1
.LBE1118:
.LBE1117:
.LBE1116:
.LBE1115:
	.loc 10 607 27 view .LVU1403
	str	r1, [r4, #4]
	.loc 10 608 17 is_stmt 1 view .LVU1404
.LVL315:
.LBB1133:
.LBI1115:
	.loc 10 573 12 view .LVU1405
.LBB1131:
	.loc 10 574 5 view .LVU1406
	.loc 10 575 5 view .LVU1407
	.loc 10 575 11 view .LVU1408
.LBB1123:
.LBI1117:
	.loc 10 86 12 view .LVU1409
.LBB1119:
	.loc 10 87 5 view .LVU1410
	.loc 10 87 8 is_stmt 0 view .LVU1411
	bls	.L384
	subs	r3, r2, r3
	subs	r3, r3, #2
.LBE1119:
.LBE1123:
	.loc 10 574 9 view .LVU1412
	movs	r2, #0
.LVL316:
.L321:
.LBB1124:
.LBB1120:
	.loc 10 90 9 is_stmt 1 view .LVU1413
.LBE1120:
.LBE1124:
	.loc 10 575 48 is_stmt 0 view .LVU1414
	ldrb	r0, [r1], #1	@ zero_extendqisi2
.LVL317:
.LBB1125:
.LBI1125:
	.loc 10 74 12 is_stmt 1 view .LVU1415
.LBB1126:
	.loc 10 75 5 view .LVU1416
	.loc 10 75 104 is_stmt 0 view .LVU1417
	subs	r0, r0, #48
.LVL318:
	.loc 10 75 8 view .LVU1418
	cmp	r0, #7
	bls	.L395
.LVL319:
.L320:
	.loc 10 75 8 view .LVU1419
.LBE1126:
.LBE1125:
	.loc 10 579 5 is_stmt 1 view .LVU1420
	.loc 10 579 5 is_stmt 0 view .LVU1421
.LBE1131:
.LBE1133:
	.loc 10 609 17 is_stmt 1 view .LVU1422
	.loc 10 609 29 is_stmt 0 view .LVU1423
	movs	r3, #7
	strb	r3, [r5]
	b	.L317
.LVL320:
.L391:
	.loc 10 603 17 is_stmt 1 view .LVU1424
	.loc 10 603 27 is_stmt 0 view .LVU1425
	adds	r1, r3, #2
.LBB1134:
.LBB1135:
.LBB1136:
.LBB1137:
	.loc 10 87 8 view .LVU1426
	cmp	r2, r1
.LBE1137:
.LBE1136:
.LBE1135:
.LBE1134:
	.loc 10 603 27 view .LVU1427
	str	r1, [r4, #4]
	.loc 10 604 17 is_stmt 1 view .LVU1428
.LVL321:
.LBB1148:
.LBI1134:
	.loc 10 564 12 view .LVU1429
.LBB1146:
	.loc 10 565 5 view .LVU1430
	.loc 10 566 5 view .LVU1431
	.loc 10 566 11 view .LVU1432
.LBB1142:
.LBI1136:
	.loc 10 86 12 view .LVU1433
.LBB1138:
	.loc 10 87 5 view .LVU1434
	.loc 10 87 8 is_stmt 0 view .LVU1435
	bls	.L384
	subs	r3, r2, r3
	ldr	ip, .L397
	subs	r2, r3, #2
.LBE1138:
.LBE1142:
	.loc 10 565 9 view .LVU1436
	movs	r0, #0
.LVL322:
.L314:
	.loc 10 567 9 is_stmt 1 view .LVU1437
.LBB1143:
.LBB1139:
	.loc 10 90 9 view .LVU1438
.LBE1139:
.LBE1143:
	.loc 10 566 29 is_stmt 0 view .LVU1439
	ldrb	r3, [r1], #1	@ zero_extendqisi2
	.loc 10 566 26 view .LVU1440
	ldrb	r3, [ip, r3]	@ zero_extendqisi2
	tst	r3, #68
	beq	.L396
	.loc 10 568 20 view .LVU1441
	adds	r0, r0, #1
.LVL323:
.LBB1144:
.LBB1140:
	.loc 10 87 8 view .LVU1442
	cmp	r0, r2
.LBE1140:
.LBE1144:
	.loc 10 567 19 view .LVU1443
	str	r1, [r4, #4]
	.loc 10 568 9 is_stmt 1 view .LVU1444
.LVL324:
	.loc 10 566 11 view .LVU1445
.LBB1145:
	.loc 10 86 12 view .LVU1446
.LBB1141:
	.loc 10 87 5 view .LVU1447
	.loc 10 87 8 is_stmt 0 view .LVU1448
	bne	.L314
.LVL325:
.L315:
	.loc 10 87 8 view .LVU1449
.LBE1141:
.LBE1145:
	.loc 10 570 5 is_stmt 1 view .LVU1450
	.loc 10 570 5 is_stmt 0 view .LVU1451
.LBE1146:
.LBE1148:
	.loc 10 605 17 is_stmt 1 view .LVU1452
	.loc 10 605 29 is_stmt 0 view .LVU1453
	movs	r3, #6
	strb	r3, [r5]
	b	.L317
.LVL326:
.L387:
	.loc 10 605 29 view .LVU1454
.LBE1155:
.LBE1260:
.LBB1261:
.LBB1178:
	.loc 10 671 13 is_stmt 1 view .LVU1455
	.loc 10 671 23 is_stmt 0 view .LVU1456
	adds	r3, r3, #1
	str	r3, [r4, #4]
	.loc 10 672 13 is_stmt 1 view .LVU1457
	.loc 10 672 25 is_stmt 0 view .LVU1458
	movs	r3, #15
	strb	r3, [r5]
	.loc 10 673 13 is_stmt 1 view .LVU1459
.LVL327:
.LBB1170:
.LBI1170:
	.loc 10 652 13 view .LVU1460
.LBB1171:
	.loc 10 653 5 view .LVU1461
	mov	r0, r4
	bl	skipQuoteProgramData
.LVL328:
	.loc 10 653 5 is_stmt 0 view .LVU1462
.LBE1171:
.LBE1170:
	.loc 10 674 13 is_stmt 1 view .LVU1463
.LBB1172:
.LBI1172:
	.loc 10 86 12 view .LVU1464
.LBB1173:
	.loc 10 87 5 view .LVU1465
	.loc 10 87 24 is_stmt 0 view .LVU1466
	ldrd	r3, r2, [r4]
	ldr	r1, [r4, #8]
	add	r3, r3, r1
	.loc 10 87 8 view .LVU1467
	cmp	r2, r3
	bcs	.L337
.LVL329:
	.loc 10 90 9 is_stmt 1 view .LVU1468
	.loc 10 90 9 is_stmt 0 view .LVU1469
.LBE1173:
.LBE1172:
.LBB1174:
.LBI1174:
	.loc 10 109 12 is_stmt 1 view .LVU1470
.LBB1175:
	.loc 10 110 5 view .LVU1471
	.loc 10 110 5 is_stmt 0 view .LVU1472
.LBE1175:
.LBE1174:
	.loc 10 674 31 view .LVU1473
	ldrb	r3, [r2]	@ zero_extendqisi2
	cmp	r3, #34
	bne	.L337
.L385:
	.loc 10 685 17 is_stmt 1 view .LVU1474
	.loc 10 685 27 is_stmt 0 view .LVU1475
	adds	r2, r2, #1
	str	r2, [r4, #4]
	.loc 10 686 17 is_stmt 1 view .LVU1476
	.loc 10 686 48 is_stmt 0 view .LVU1477
	ldr	r3, [r5, #4]
	.loc 10 686 41 view .LVU1478
	subs	r2, r2, r3
	.loc 10 686 28 view .LVU1479
	str	r2, [r5, #8]
	.loc 10 693 23 view .LVU1480
	ldr	r6, [r4, #4]
	.loc 10 693 5 is_stmt 1 view .LVU1481
	.loc 10 693 29 is_stmt 0 view .LVU1482
	subs	r6, r6, r3
	.loc 10 695 8 view .LVU1483
	cmp	r6, #0
	.loc 10 693 16 view .LVU1484
	str	r6, [r5, #8]
	.loc 10 695 5 is_stmt 1 view .LVU1485
	.loc 10 695 8 is_stmt 0 view .LVU1486
	bgt	.L329
	b	.L355
.LVL330:
.L340:
	.loc 10 695 8 view .LVU1487
.LBE1178:
.LBE1261:
.LBB1262:
.LBB1212:
	.loc 10 753 16 is_stmt 1 view .LVU1488
	.loc 10 753 16 is_stmt 0 view .LVU1489
.LBE1212:
.LBE1262:
	.loc 10 87 5 is_stmt 1 view .LVU1490
.LBB1263:
.LBB1213:
	.loc 10 769 27 is_stmt 0 view .LVU1491
	ldr	r3, [r5, #4]
	b	.L338
.LVL331:
.L395:
	.loc 10 769 27 view .LVU1492
.LBE1213:
.LBE1263:
.LBB1264:
.LBB1156:
.LBB1149:
.LBB1132:
.LBB1128:
.LBB1127:
	.loc 10 76 9 is_stmt 1 view .LVU1493
	.loc 10 76 9 is_stmt 0 view .LVU1494
.LBE1127:
.LBE1128:
	.loc 10 576 9 is_stmt 1 view .LVU1495
	.loc 10 577 20 is_stmt 0 view .LVU1496
	adds	r2, r2, #1
.LVL332:
.LBB1129:
.LBB1121:
	.loc 10 87 8 view .LVU1497
	cmp	r2, r3
.LBE1121:
.LBE1129:
	.loc 10 576 19 view .LVU1498
	str	r1, [r4, #4]
	.loc 10 577 9 is_stmt 1 view .LVU1499
.LVL333:
	.loc 10 575 11 view .LVU1500
.LBB1130:
	.loc 10 86 12 view .LVU1501
.LBB1122:
	.loc 10 87 5 view .LVU1502
	.loc 10 87 8 is_stmt 0 view .LVU1503
	bne	.L321
	b	.L320
.LVL334:
.L396:
	.loc 10 87 8 view .LVU1504
.LBE1122:
.LBE1130:
.LBE1132:
.LBE1149:
.LBB1150:
.LBB1147:
	mov	r2, r0
	b	.L315
.LVL335:
.L393:
	.loc 10 87 8 view .LVU1505
.LBE1147:
.LBE1150:
.LBB1151:
.LBB1113:
.LBB1109:
.LBB1108:
	.loc 10 64 9 is_stmt 1 view .LVU1506
	.loc 10 64 9 is_stmt 0 view .LVU1507
.LBE1108:
.LBE1109:
	.loc 10 585 9 is_stmt 1 view .LVU1508
	.loc 10 586 20 is_stmt 0 view .LVU1509
	adds	r2, r2, #1
.LVL336:
.LBB1110:
.LBB1102:
	.loc 10 87 8 view .LVU1510
	cmp	r2, r3
.LBE1102:
.LBE1110:
	.loc 10 585 19 view .LVU1511
	str	r1, [r4, #4]
	.loc 10 586 9 is_stmt 1 view .LVU1512
.LVL337:
	.loc 10 584 11 view .LVU1513
.LBB1111:
	.loc 10 86 12 view .LVU1514
.LBB1103:
	.loc 10 87 5 view .LVU1515
	.loc 10 87 8 is_stmt 0 view .LVU1516
	bne	.L325
	b	.L324
.LVL338:
.L350:
	.loc 10 87 8 view .LVU1517
.LBE1103:
.LBE1111:
.LBE1113:
.LBE1151:
.LBE1156:
.LBE1264:
.LBB1265:
.LBB1252:
	.loc 10 813 9 is_stmt 1 view .LVU1518
.LBB1249:
	.loc 10 86 12 view .LVU1519
.LBB1247:
	.loc 10 87 5 view .LVU1520
	.loc 10 87 8 is_stmt 0 view .LVU1521
	cmp	r2, r6
	bhi	.L354
	b	.L352
.LVL339:
.L359:
	.loc 10 87 8 view .LVU1522
.LBE1247:
.LBE1249:
.LBE1252:
.LBE1265:
	mov	r6, r3
	b	.L329
.L398:
	.align	2
.L397:
	.word	_ctype_+1
	.cfi_endproc
.LFE277:
	.size	scpiParser_parseProgramData, .-scpiParser_parseProgramData
	.section	.text.usbtmcd_init_cb,"ax",%progbits
	.align	1
	.p2align 2,,3
	.syntax unified
	.thumb
	.thumb_func
	.fpu fpv4-sp-d16
	.type	usbtmcd_init_cb, %function
usbtmcd_init_cb:
.LFB287:
	.file 13 "/Users/margaret/Github/tinylogicfriend/lib/tinyusb/src/class/usbtmc/usbtmc_device.c"
	.loc 13 245 1 is_stmt 1 view -0
	.cfi_startproc
	@ args = 0, pretend = 0, frame = 0
	@ frame_needed = 0, uses_anonymous_args = 0
	@ link register save eliminated.
	.loc 13 246 3 view .LVU1524
.LBB1274:
.LBI1274:
	.loc 6 119 1 view .LVU1525
.LBE1274:
	.loc 6 121 3 view .LVU1526
	.loc 13 246 29 is_stmt 0 view .LVU1527
	ldr	r3, .L412
	ldr	r1, .L412+4
	.loc 13 252 7 view .LVU1528
	ldrb	r2, [r3, #4]	@ zero_extendqisi2
	.loc 13 246 29 view .LVU1529
	str	r3, [r1, #152]
	.loc 13 249 5 is_stmt 1 view .LVU1530
	.loc 13 250 7 view .LVU1531
	.loc 13 252 7 view .LVU1532
	.loc 13 252 7 view .LVU1533
	lsls	r1, r2, #31
	bmi	.L411
	.loc 13 252 7 discriminator 2 view .LVU1534
	.loc 13 253 7 discriminator 2 view .LVU1535
	.loc 13 253 7 discriminator 2 view .LVU1536
	lsls	r2, r2, #30
	bmi	.L411
	.loc 13 253 7 discriminator 2 view .LVU1537
	.loc 13 255 5 discriminator 2 view .LVU1538
	.loc 13 256 7 discriminator 2 view .LVU1539
	.loc 13 259 5 discriminator 2 view .LVU1540
.LVL340:
.LBB1275:
.LBI1275:
	.file 14 "/Users/margaret/Github/tinylogicfriend/lib/tinyusb/src/osal/osal_none.h"
	.loc 14 85 28 discriminator 2 view .LVU1541
.LBB1276:
	.loc 14 87 3 discriminator 2 view .LVU1542
	.loc 14 87 15 is_stmt 0 discriminator 2 view .LVU1543
	ldr	r3, .L412+8
.LBE1276:
.LBE1275:
	.loc 13 259 16 discriminator 2 view .LVU1544
	ldr	r2, .L412+12
.LBB1278:
.LBB1277:
	.loc 14 87 15 discriminator 2 view .LVU1545
	movs	r1, #1
	strh	r1, [r3]	@ movhi
	.loc 14 88 3 is_stmt 1 discriminator 2 view .LVU1546
.LVL341:
	.loc 14 88 3 is_stmt 0 discriminator 2 view .LVU1547
.LBE1277:
.LBE1278:
	.loc 13 259 16 discriminator 2 view .LVU1548
	str	r3, [r2]
.L399:
	.loc 13 260 1 view .LVU1549
	bx	lr
.L411:
	.loc 13 253 7 is_stmt 1 discriminator 1 view .LVU1550
	.loc 13 253 7 discriminator 1 view .LVU1551
	.loc 13 253 7 discriminator 1 view .LVU1552
	.loc 13 253 7 discriminator 1 view .LVU1553
.LBB1279:
	.loc 13 253 7 discriminator 1 view .LVU1554
.LVL342:
	.loc 13 253 7 discriminator 1 view .LVU1555
	mov	r3, #-536813568
	ldr	r3, [r3, #3568]
	lsls	r3, r3, #31
	bpl	.L399
	.loc 13 253 7 discriminator 3 view .LVU1556
	.syntax unified
@ 253 "/Users/margaret/Github/tinylogicfriend/lib/tinyusb/src/class/usbtmc/usbtmc_device.c" 1
	BKPT #0

@ 0 "" 2
	.thumb
	.syntax unified
	bx	lr
.L413:
	.align	2
.L412:
	.word	.LANCHOR5
	.word	.LANCHOR4
	.word	.LANCHOR6
	.word	.LANCHOR7
.LBE1279:
	.cfi_endproc
.LFE287:
	.size	usbtmcd_init_cb, .-usbtmcd_init_cb
	.section	.text.scpiParser_detectProgramMessageUnit.constprop.0,"ax",%progbits
	.align	1
	.p2align 2,,3
	.syntax unified
	.thumb
	.thumb_func
	.fpu fpv4-sp-d16
	.type	scpiParser_detectProgramMessageUnit.constprop.0, %function
scpiParser_detectProgramMessageUnit.constprop.0:
.LVL343:
.LFB69:
	.loc 11 1427 5 view -0
	.cfi_startproc
	@ args = 0, pretend = 0, frame = 40
	@ frame_needed = 0, uses_anonymous_args = 0
	.loc 11 1427 5 is_stmt 0 view .LVU1558
	push	{r4, r5, r6, r7, lr}
	.cfi_def_cfa_offset 20
	.cfi_offset 4, -20
	.cfi_offset 5, -16
	.cfi_offset 6, -12
	.cfi_offset 7, -8
	.cfi_offset 14, -4
	.loc 11 1434 31 is_stmt 1 view .LVU1559
	ldr	r4, .L472
	.loc 11 1427 5 view .LVU1560
	sub	sp, sp, #44
	.cfi_def_cfa_offset 64
	.loc 11 1427 5 view .LVU1561
	mov	r3, r1
	.loc 11 1434 31 view .LVU1562
	movs	r2, #0
	.loc 11 1432 22 view .LVU1563
	strd	r0, r0, [sp, #4]
	.loc 11 1437 5 view .LVU1564
	add	r1, sp, #16
.LVL344:
	.loc 11 1437 5 is_stmt 0 view .LVU1565
	add	r0, sp, #4
.LVL345:
	.loc 11 1434 31 is_stmt 1 view .LVU1566
	str	r2, [r4, #124]
	.loc 11 1433 19 view .LVU1567
	str	r3, [sp, #12]
	.loc 11 1437 5 view .LVU1568
	bl	scpiLex_WhiteSpace
.LVL346:
.LBB1362:
.LBB1363:
	.loc 10 409 17 view .LVU1569
	movs	r2, #26
.LBB1364:
.LBB1365:
.LBB1366:
.LBB1367:
.LBB1368:
.LBB1369:
	.loc 10 87 24 view .LVU1570
	ldr	r1, [sp, #12]
.LBE1369:
.LBE1368:
.LBE1367:
.LBE1366:
.LBE1365:
.LBE1364:
	.loc 10 409 17 view .LVU1571
	strb	r2, [r4, #100]
.LVL347:
.LBB1390:
.LBB1386:
.LBB1381:
.LBB1376:
.LBB1372:
.LBB1370:
	.loc 10 87 24 view .LVU1572
	ldr	r2, [sp, #4]
.LBE1370:
.LBE1372:
.LBE1376:
.LBE1381:
.LBE1386:
.LBE1390:
	.loc 10 408 23 view .LVU1573
	ldr	r3, [sp, #8]
	.loc 10 408 16 view .LVU1574
	str	r3, [r4, #104]
.LBB1391:
.LBB1387:
.LBB1382:
.LBB1377:
.LBB1373:
.LBB1371:
	.loc 10 87 24 view .LVU1575
	add	r2, r2, r1
	.loc 10 87 8 view .LVU1576
	cmp	r3, r2
	bcc	.L461
.LVL348:
.L415:
	.loc 10 87 8 is_stmt 0 view .LVU1577
.LBE1371:
.LBE1373:
.LBE1377:
.LBE1382:
.LBE1387:
.LBE1391:
.LBB1392:
.LBB1393:
	.loc 10 380 11 is_stmt 1 view .LVU1578
	add	r0, sp, #4
.LVL349:
	.loc 10 380 11 is_stmt 0 view .LVU1579
	bl	skipProgramMnemonic
.LVL350:
	.loc 10 381 8 is_stmt 1 view .LVU1580
	cmp	r0, #0
	ble	.L462
.LVL351:
.L426:
.LBB1394:
.LBB1395:
.LBB1396:
.LBB1397:
	.loc 10 87 47 view .LVU1581
	ldrd	r3, r1, [sp, #8]
	.loc 10 87 24 view .LVU1582
	ldr	r2, [sp, #4]
	add	r2, r2, r1
	.loc 10 87 8 view .LVU1583
	cmp	r3, r2
	.loc 10 87 47 view .LVU1584
	mov	r0, r3
.LVL352:
	.loc 10 87 8 view .LVU1585
	bcs	.L421
.LBE1397:
.LBE1396:
.LBB1398:
.LBB1399:
	.loc 10 110 23 view .LVU1586
	ldrb	r2, [r3]	@ zero_extendqisi2
.LVL353:
	.loc 10 110 23 is_stmt 0 view .LVU1587
.LBE1399:
.LBE1398:
	.loc 10 292 23 is_stmt 1 view .LVU1588
	cmp	r2, #58
	beq	.L463
.LVL354:
.L427:
	.loc 10 292 23 is_stmt 0 view .LVU1589
.LBE1395:
.LBE1394:
.LBE1393:
.LBE1392:
.LBB1411:
.LBB1412:
	.loc 10 250 23 is_stmt 1 view .LVU1590
	cmp	r2, #63
	beq	.L429
.LBE1412:
.LBE1411:
	.loc 10 435 27 view .LVU1591
	mov	r0, r3
.LVL355:
.L421:
	.loc 10 427 29 view .LVU1592
	movs	r3, #17
	strb	r3, [r4, #100]
	b	.L445
.LVL356:
.L461:
.LBB1420:
.LBB1388:
.LBB1383:
.LBB1378:
.LBB1374:
.LBB1375:
	.loc 10 110 23 view .LVU1593
	ldrb	r2, [r3]	@ zero_extendqisi2
.LVL357:
	.loc 10 110 23 is_stmt 0 view .LVU1594
.LBE1375:
.LBE1374:
	.loc 10 278 23 is_stmt 1 view .LVU1595
	cmp	r2, #42
	beq	.L464
.LVL358:
	.loc 10 278 23 is_stmt 0 view .LVU1596
.LBE1378:
.LBE1383:
.LBE1388:
.LBE1420:
.LBB1421:
.LBB1408:
.LBB1402:
.LBB1403:
	.loc 10 292 23 is_stmt 1 view .LVU1597
	cmp	r2, #58
	bne	.L415
	.loc 10 293 19 view .LVU1598
	adds	r3, r3, #1
.LBE1403:
.LBE1402:
	.loc 10 380 11 view .LVU1599
	add	r0, sp, #4
.LVL359:
.LBB1405:
.LBB1404:
	.loc 10 293 19 view .LVU1600
	str	r3, [sp, #8]
.LVL360:
	.loc 10 293 19 is_stmt 0 view .LVU1601
.LBE1404:
.LBE1405:
	.loc 10 380 11 is_stmt 1 view .LVU1602
	bl	skipProgramMnemonic
.LVL361:
	.loc 10 381 8 view .LVU1603
	cmp	r0, #0
	bgt	.L426
	.loc 10 391 15 view .LVU1604
	bne	.L424
.LVL362:
.L425:
	.loc 10 391 15 is_stmt 0 view .LVU1605
.LBE1408:
.LBE1421:
	.loc 10 430 25 is_stmt 1 view .LVU1606
	movs	r3, #18
	.loc 10 435 27 view .LVU1607
	ldr	r0, [sp, #8]
	.loc 10 430 25 view .LVU1608
	strb	r3, [r4, #100]
	b	.L445
.LVL363:
.L464:
.LBB1422:
.LBB1389:
.LBB1384:
.LBB1379:
	.loc 10 279 19 view .LVU1609
	adds	r3, r3, #1
.LBE1379:
.LBE1384:
	.loc 10 357 15 view .LVU1610
	add	r0, sp, #4
.LVL364:
.LBB1385:
.LBB1380:
	.loc 10 279 19 view .LVU1611
	str	r3, [sp, #8]
.LVL365:
	.loc 10 279 19 is_stmt 0 view .LVU1612
.LBE1380:
.LBE1385:
	.loc 10 357 15 is_stmt 1 view .LVU1613
	bl	skipProgramMnemonic
.LVL366:
	.loc 10 358 12 view .LVU1614
	cbnz	r0, .L417
.LVL367:
	.loc 10 358 12 is_stmt 0 view .LVU1615
.LBE1389:
.LBE1422:
	.loc 10 419 21 is_stmt 1 view .LVU1616
	movs	r3, #20
	.loc 10 435 27 view .LVU1617
	ldr	r0, [sp, #8]
	.loc 10 419 21 view .LVU1618
	strb	r3, [r4, #100]
.L445:
	.loc 10 435 33 view .LVU1619
	ldr	r3, [r4, #104]
	subs	r3, r0, r3
.LBE1363:
.LBE1362:
	.loc 11 1439 8 view .LVU1620
	cmp	r3, #0
.LBB1441:
.LBB1436:
	.loc 10 435 20 view .LVU1621
	str	r3, [r4, #108]
.LVL368:
	.loc 10 435 20 is_stmt 0 view .LVU1622
.LBE1436:
.LBE1441:
	.loc 11 1439 8 is_stmt 1 view .LVU1623
	bge	.L431
	.loc 11 1446 9 view .LVU1624
	ldr	r1, [sp, #4]
.LVL369:
.LBB1442:
.LBB1443:
	.loc 11 677 16 view .LVU1625
	str	r1, [r4, #116]
.LBE1443:
.LBE1442:
.LBB1446:
.LBB1447:
	.loc 11 676 16 view .LVU1626
	movs	r2, #0
	.loc 11 677 16 view .LVU1627
	strd	r1, r2, [r4, #104]
.LBE1447:
.LBE1446:
.LBB1449:
.LBB1444:
	.loc 11 676 16 view .LVU1628
	str	r2, [r4, #120]
.LBE1444:
.LBE1449:
.LBB1450:
.LBB1451:
.LBB1452:
.LBB1453:
.LBB1454:
.LBB1455:
	.loc 10 87 24 view .LVU1629
	ldr	r2, [sp, #12]
.LBE1455:
.LBE1454:
.LBE1453:
.LBE1452:
.LBE1451:
.LBE1450:
.LBB1499:
.LBB1448:
	.loc 11 678 17 view .LVU1630
	movs	r3, #26
	strb	r3, [r4, #100]
.LVL370:
	.loc 11 678 17 is_stmt 0 view .LVU1631
.LBE1448:
.LBE1499:
.LBB1500:
.LBB1445:
	strb	r3, [r4, #112]
.LBE1445:
.LBE1500:
.LBB1501:
.LBB1494:
.LBB1473:
.LBB1466:
.LBB1460:
.LBB1456:
	.loc 10 87 24 is_stmt 1 view .LVU1632
	add	r2, r2, r1
.LVL371:
.L437:
	.loc 10 87 8 view .LVU1633
	cmp	r2, r0
.LBE1456:
.LBE1460:
.LBE1466:
.LBE1473:
	.loc 10 919 16 view .LVU1634
	str	r0, [sp, #20]
.LVL372:
.LBB1474:
.LBB1467:
.LBB1461:
.LBB1457:
	.loc 10 87 8 view .LVU1635
	bhi	.L465
.LVL373:
.L438:
	.loc 10 87 8 is_stmt 0 view .LVU1636
.LBE1457:
.LBE1461:
.LBE1467:
.LBE1474:
.LBE1494:
.LBE1501:
	.loc 11 1467 28 is_stmt 1 view .LVU1637
	movs	r3, #0
	.loc 11 1470 26 view .LVU1638
	subs	r0, r0, r1
	.loc 11 1467 28 view .LVU1639
	strb	r3, [r4, #128]
	.loc 11 1471 1 view .LVU1640
	add	sp, sp, #44
	.cfi_remember_state
	.cfi_def_cfa_offset 20
	@ sp needed
	pop	{r4, r5, r6, r7, pc}
.LVL374:
.L417:
	.cfi_restore_state
.LBB1502:
.LBB1437:
.LBB1423:
.LBB1424:
.LBB1425:
.LBB1426:
	.loc 10 87 47 view .LVU1641
	ldrd	r0, r2, [sp, #8]
	.loc 10 87 24 view .LVU1642
	ldr	r3, [sp, #4]
	add	r3, r3, r2
	.loc 10 87 8 view .LVU1643
	cmp	r0, r3
	bcs	.L419
.LVL375:
	.loc 10 87 8 is_stmt 0 view .LVU1644
.LBE1426:
.LBE1425:
	.loc 10 250 23 is_stmt 1 view .LVU1645
	ldrb	r3, [r0]	@ zero_extendqisi2
	cmp	r3, #63
	beq	.L466
.L419:
.LVL376:
	.loc 10 250 23 is_stmt 0 view .LVU1646
.LBE1424:
.LBE1423:
	.loc 10 416 25 is_stmt 1 view .LVU1647
	movs	r3, #19
	strb	r3, [r4, #100]
	b	.L445
.LVL377:
.L465:
	.loc 10 416 25 is_stmt 0 view .LVU1648
.LBE1437:
.LBE1502:
.LBB1503:
.LBB1495:
.LBB1475:
.LBB1468:
.LBB1462:
.LBB1463:
	.loc 10 110 23 is_stmt 1 view .LVU1649
	ldrb	r5, [r0]	@ zero_extendqisi2
.LVL378:
	.loc 10 110 23 is_stmt 0 view .LVU1650
.LBE1463:
.LBE1462:
	.loc 10 250 23 is_stmt 1 view .LVU1651
	cmp	r5, #13
	beq	.L467
	mov	r3, r0
.LVL379:
.L439:
	.loc 10 250 23 is_stmt 0 view .LVU1652
.LBE1468:
.LBE1475:
.LBB1476:
.LBB1477:
	cmp	r5, #10
.LBE1477:
.LBE1476:
	.loc 10 924 23 is_stmt 1 view .LVU1653
	ite	ne
	ldrne	r3, [sp, #8]
.LBB1487:
.LBB1484:
	.loc 10 251 19 view .LVU1654
	addeq	r3, r3, #1
.LBE1484:
.LBE1487:
	.loc 10 924 29 view .LVU1655
	subs	r2, r3, r0
.LVL380:
	.loc 10 926 8 view .LVU1656
	cmp	r2, #0
	ble	.L443
.L440:
.LVL381:
	.loc 10 926 8 is_stmt 0 view .LVU1657
.LBE1495:
.LBE1503:
	mov	r0, r3
	.loc 11 1465 28 is_stmt 1 view .LVU1658
	movs	r2, #1
	.loc 11 1470 26 view .LVU1659
	subs	r0, r0, r1
	.loc 11 1465 28 view .LVU1660
	strb	r2, [r4, #128]
	.loc 11 1471 1 view .LVU1661
	add	sp, sp, #44
	.cfi_remember_state
	.cfi_def_cfa_offset 20
	@ sp needed
	pop	{r4, r5, r6, r7, pc}
.LVL382:
.L462:
	.cfi_restore_state
.LBB1504:
.LBB1438:
.LBB1429:
.LBB1409:
	.loc 10 391 15 view .LVU1662
	bne	.L424
.LVL383:
	.loc 10 391 15 is_stmt 0 view .LVU1663
.LBE1409:
.LBE1429:
	.loc 10 434 8 is_stmt 1 view .LVU1664
	ldrb	r3, [r4, #100]	@ zero_extendqisi2
	cmp	r3, #26
	bne	.L468
	.loc 10 438 20 view .LVU1665
	ldr	r3, [r4, #104]
	str	r3, [sp, #8]
.LVL384:
	.loc 10 437 20 view .LVU1666
	movs	r2, #0
	str	r2, [r4, #108]
.LVL385:
.L431:
	.loc 10 437 20 is_stmt 0 view .LVU1667
.LBE1438:
.LBE1504:
	.loc 11 1440 13 is_stmt 1 view .LVU1668
	add	r1, sp, #16
	add	r0, sp, #4
	bl	scpiLex_WhiteSpace
.LVL386:
	.loc 11 1440 12 view .LVU1669
	cmp	r0, #0
	bgt	.L469
	.loc 11 1443 13 view .LVU1670
	ldrd	r0, r2, [sp, #8]
.LVL387:
.LBB1505:
.LBB1506:
	.loc 11 676 16 view .LVU1671
	movs	r3, #0
.LBE1506:
.LBE1505:
.LBB1509:
.LBB1496:
.LBB1488:
.LBB1469:
.LBB1464:
.LBB1458:
	.loc 10 87 15 view .LVU1672
	ldr	r1, [sp, #4]
.LBE1458:
.LBE1464:
.LBE1469:
.LBE1488:
.LBE1496:
.LBE1509:
.LBB1510:
.LBB1507:
	.loc 11 676 16 view .LVU1673
	str	r3, [r4, #120]
	.loc 11 678 17 view .LVU1674
	movs	r3, #26
	.loc 11 677 16 view .LVU1675
	str	r0, [r4, #116]
	.loc 11 678 17 view .LVU1676
	strb	r3, [r4, #112]
.LBE1507:
.LBE1510:
.LBB1511:
.LBB1497:
.LBB1489:
.LBB1470:
.LBB1465:
.LBB1459:
	.loc 10 87 24 view .LVU1677
	add	r2, r2, r1
.LBE1459:
.LBE1465:
.LBE1470:
.LBE1489:
.LBE1497:
.LBE1511:
.LBB1512:
.LBB1508:
	.loc 11 679 1 view .LVU1678
	b	.L437
.LVL388:
.L469:
	.loc 11 679 1 is_stmt 0 view .LVU1679
.LBE1508:
.LBE1512:
.LBB1513:
.LBB1514:
	.loc 11 1396 16 is_stmt 1 view .LVU1680
	ldr	r3, [sp, #8]
	str	r3, [r4, #116]
.LVL389:
	.loc 11 1395 17 view .LVU1681
	movs	r2, #24
	.loc 11 1392 9 view .LVU1682
	movs	r7, #0
	.loc 11 1395 17 view .LVU1683
	strb	r2, [r4, #112]
	.loc 11 1396 16 view .LVU1684
	mov	r3, #-1
.LBB1515:
.LBB1516:
	.loc 10 842 20 view .LVU1685
	movs	r6, #1
	.loc 10 843 21 view .LVU1686
	mov	r5, r7
.LVL390:
.L436:
	.loc 10 843 21 is_stmt 0 view .LVU1687
.LBE1516:
.LBE1515:
	.loc 11 1400 20 is_stmt 1 view .LVU1688
	adds	r3, r3, #1
	.loc 11 1402 18 view .LVU1689
	add	r1, sp, #28
	add	r0, sp, #4
.LVL391:
	.loc 11 1400 20 view .LVU1690
	str	r3, [r4, #120]
	.loc 11 1402 18 view .LVU1691
	bl	scpiParser_parseProgramData
.LVL392:
	.loc 11 1403 12 view .LVU1692
	ldrb	r3, [sp, #28]	@ zero_extendqisi2
.LVL393:
	.loc 11 1403 12 is_stmt 0 view .LVU1693
	cmp	r3, #26
	.loc 11 1411 19 is_stmt 1 view .LVU1694
	add	r7, r7, #1
.LVL394:
	.loc 11 1403 12 view .LVU1695
	beq	.L434
	.loc 11 1404 24 view .LVU1696
	ldr	r3, [r4, #120]
.LBB1545:
.LBB1539:
.LBB1517:
.LBB1518:
.LBB1519:
.LBB1520:
	.loc 10 87 15 view .LVU1697
	ldr	r1, [sp, #4]
	.loc 10 87 24 view .LVU1698
	ldr	r2, [sp, #12]
.LBE1520:
.LBE1519:
.LBE1518:
.LBE1517:
.LBE1539:
.LBE1545:
	.loc 11 1404 24 view .LVU1699
	add	r3, r3, r0
.LBB1546:
.LBB1540:
	.loc 10 839 23 view .LVU1700
	ldr	r0, [sp, #8]
.LVL395:
	.loc 10 839 23 is_stmt 0 view .LVU1701
.LBE1540:
.LBE1546:
	.loc 11 1404 24 is_stmt 1 view .LVU1702
	str	r3, [r4, #120]
.LBB1547:
.LBB1541:
.LBB1534:
.LBB1529:
.LBB1525:
.LBB1521:
	.loc 10 87 24 view .LVU1703
	add	r2, r2, r1
	.loc 10 87 8 view .LVU1704
	cmp	r0, r2
.LBE1521:
.LBE1525:
.LBE1529:
.LBE1534:
	.loc 10 839 16 view .LVU1705
	str	r0, [sp, #32]
.LVL396:
.LBB1535:
.LBB1530:
.LBB1526:
.LBB1522:
	.loc 10 87 8 view .LVU1706
	bcc	.L470
.LVL397:
.L435:
	.loc 10 87 8 is_stmt 0 view .LVU1707
.LBE1522:
.LBE1526:
.LBE1530:
.LBE1535:
.LBE1541:
.LBE1547:
	.loc 11 1415 29 is_stmt 1 view .LVU1708
	str	r7, [r4, #124]
	.loc 11 1417 17 view .LVU1709
	b	.L437
.LVL398:
.L470:
.LBB1548:
.LBB1542:
.LBB1536:
.LBB1531:
	.loc 10 250 23 view .LVU1710
	ldrb	ip, [r0]	@ zero_extendqisi2
	cmp	ip, #44
	bne	.L435
	.loc 10 251 19 view .LVU1711
	adds	r0, r0, #1
	str	r0, [sp, #8]
.LVL399:
	.loc 10 251 19 is_stmt 0 view .LVU1712
.LBE1531:
.LBE1536:
	.loc 10 842 20 is_stmt 1 view .LVU1713
	str	r6, [sp, #36]
	.loc 10 843 21 view .LVU1714
	strb	r5, [sp, #28]
.LVL400:
	.loc 10 843 21 is_stmt 0 view .LVU1715
	b	.L436
.LVL401:
.L467:
	.loc 10 843 21 view .LVU1716
.LBE1542:
.LBE1548:
.LBE1514:
.LBE1513:
.LBB1552:
.LBB1498:
.LBB1490:
.LBB1471:
	.loc 10 251 19 is_stmt 1 view .LVU1717
	adds	r3, r0, #1
.LBE1471:
.LBE1490:
.LBB1491:
.LBB1485:
.LBB1478:
.LBB1479:
	.loc 10 87 8 view .LVU1718
	cmp	r3, r2
.LBE1479:
.LBE1478:
.LBE1485:
.LBE1491:
.LBB1492:
.LBB1472:
	.loc 10 251 19 view .LVU1719
	str	r3, [sp, #8]
.LVL402:
	.loc 10 251 19 is_stmt 0 view .LVU1720
.LBE1472:
.LBE1492:
.LBB1493:
.LBB1486:
.LBB1481:
.LBB1480:
	.loc 10 87 8 is_stmt 1 view .LVU1721
	bcs	.L440
.LBE1480:
.LBE1481:
.LBB1482:
.LBB1483:
	.loc 10 110 23 view .LVU1722
	ldrb	r5, [r0, #1]	@ zero_extendqisi2
	b	.L439
.LVL403:
.L443:
	.loc 10 110 23 is_stmt 0 view .LVU1723
.LBE1483:
.LBE1482:
.LBE1486:
.LBE1493:
	.loc 10 929 21 is_stmt 1 view .LVU1724
	movs	r2, #26
	.loc 10 931 20 view .LVU1725
	movs	r3, #0
	.loc 10 929 21 view .LVU1726
	strb	r2, [sp, #16]
	.loc 10 930 20 view .LVU1727
	str	r0, [sp, #8]
	.loc 10 931 20 view .LVU1728
	str	r3, [sp, #24]
.LVL404:
	.loc 10 931 20 is_stmt 0 view .LVU1729
.LBE1498:
.LBE1552:
.LBB1553:
.LBB1554:
.LBB1555:
	.loc 10 250 23 is_stmt 1 view .LVU1730
	ldrb	r5, [r0]	@ zero_extendqisi2
	cmp	r5, #59
	beq	.L471
.LVL405:
	.loc 10 250 23 is_stmt 0 view .LVU1731
.LBE1555:
.LBE1554:
.LBE1553:
.LBB1558:
.LBB1559:
	.loc 11 676 16 is_stmt 1 view .LVU1732
	str	r3, [r4, #120]
	.loc 11 678 17 view .LVU1733
	strb	r2, [r4, #112]
.LBE1559:
.LBE1558:
	.loc 11 1457 35 view .LVU1734
	movs	r3, #25
.LVL406:
	.loc 11 1456 34 view .LVU1735
	movs	r2, #1
	.loc 11 1454 22 view .LVU1736
	adds	r0, r0, #1
.LBB1561:
.LBB1560:
	.loc 11 677 16 view .LVU1737
	str	r1, [r4, #116]
.LBE1560:
.LBE1561:
	.loc 11 1456 34 view .LVU1738
	str	r2, [r4, #108]
	.loc 11 1457 35 view .LVU1739
	strb	r3, [r4, #100]
.LVL407:
	.loc 11 1457 35 is_stmt 0 view .LVU1740
	b	.L438
.LVL408:
.L471:
.LBB1562:
.LBB1557:
.LBB1556:
	.loc 10 251 19 is_stmt 1 view .LVU1741
	adds	r0, r0, #1
.LVL409:
	.loc 10 251 19 is_stmt 0 view .LVU1742
.LBE1556:
.LBE1557:
.LBE1562:
	.loc 11 1463 28 is_stmt 1 view .LVU1743
	movs	r3, #2
	.loc 11 1470 26 view .LVU1744
	subs	r0, r0, r1
	.loc 11 1463 28 view .LVU1745
	strb	r3, [r4, #128]
	.loc 11 1471 1 view .LVU1746
	add	sp, sp, #44
	.cfi_remember_state
	.cfi_def_cfa_offset 20
	@ sp needed
	pop	{r4, r5, r6, r7, pc}
.LVL410:
.L466:
	.cfi_restore_state
.LBB1563:
.LBB1439:
.LBB1430:
.LBB1427:
	.loc 10 251 19 view .LVU1747
	adds	r0, r0, #1
.LBE1427:
.LBE1430:
	.loc 10 414 25 view .LVU1748
	movs	r3, #22
.LBB1431:
.LBB1428:
	.loc 10 251 19 view .LVU1749
	str	r0, [sp, #8]
.LVL411:
	.loc 10 251 19 is_stmt 0 view .LVU1750
.LBE1428:
.LBE1431:
	.loc 10 414 25 is_stmt 1 view .LVU1751
	strb	r3, [r4, #100]
	b	.L445
.LVL412:
.L434:
	.loc 10 414 25 is_stmt 0 view .LVU1752
.LBE1439:
.LBE1563:
.LBB1564:
.LBB1551:
.LBB1549:
.LBB1543:
.LBB1537:
.LBB1532:
.LBB1527:
.LBB1523:
	.loc 10 87 15 is_stmt 1 view .LVU1753
	ldr	r1, [sp, #4]
	.loc 10 87 24 view .LVU1754
	ldr	r2, [sp, #12]
.LBE1523:
.LBE1527:
.LBE1532:
.LBE1537:
	.loc 10 839 23 view .LVU1755
	ldr	r0, [sp, #8]
.LVL413:
	.loc 10 839 23 is_stmt 0 view .LVU1756
.LBE1543:
.LBE1549:
	.loc 11 1406 25 is_stmt 1 view .LVU1757
	strb	r3, [r4, #112]
	.loc 11 1407 24 view .LVU1758
	movs	r5, #0
	str	r5, [r4, #120]
.LVL414:
.LBB1550:
.LBB1544:
.LBB1538:
.LBB1533:
.LBB1528:
.LBB1524:
	.loc 10 87 24 view .LVU1759
	add	r2, r2, r1
.LBE1524:
.LBE1528:
.LBE1533:
.LBE1538:
.LBE1544:
.LBE1550:
	.loc 11 1408 24 view .LVU1760
	mov	r7, #-1
	.loc 11 1409 13 view .LVU1761
	b	.L435
.LVL415:
.L424:
	.loc 11 1409 13 is_stmt 0 view .LVU1762
.LBE1551:
.LBE1564:
.LBB1565:
.LBB1440:
.LBB1432:
.LBB1417:
.LBB1413:
.LBB1414:
	.loc 10 87 24 is_stmt 1 view .LVU1763
	ldr	r2, [sp, #4]
	ldr	r1, [sp, #12]
	.loc 10 87 47 view .LVU1764
	ldr	r3, [sp, #8]
	.loc 10 87 24 view .LVU1765
	add	r2, r2, r1
	.loc 10 87 8 view .LVU1766
	cmp	r3, r2
	.loc 10 87 47 view .LVU1767
	mov	r0, r3
	.loc 10 87 8 view .LVU1768
	bcs	.L421
.LBE1414:
.LBE1413:
.LBB1415:
.LBB1416:
	.loc 10 110 23 view .LVU1769
	ldrb	r2, [r3]	@ zero_extendqisi2
	b	.L427
.LVL416:
.L463:
	.loc 10 110 23 is_stmt 0 view .LVU1770
.LBE1416:
.LBE1415:
.LBE1417:
.LBE1432:
.LBB1433:
.LBB1410:
.LBB1406:
.LBB1400:
	.loc 10 293 19 is_stmt 1 view .LVU1771
	adds	r3, r3, #1
.LBE1400:
.LBE1406:
	.loc 10 383 19 view .LVU1772
	add	r0, sp, #4
.LVL417:
.LBB1407:
.LBB1401:
	.loc 10 293 19 view .LVU1773
	str	r3, [sp, #8]
.LVL418:
	.loc 10 293 19 is_stmt 0 view .LVU1774
.LBE1401:
.LBE1407:
	.loc 10 383 19 is_stmt 1 view .LVU1775
	bl	skipProgramMnemonic
.LVL419:
	.loc 10 384 16 view .LVU1776
	cmp	r0, #0
	blt	.L424
	.loc 10 386 23 view .LVU1777
	bne	.L426
	b	.L425
.LVL420:
.L429:
	.loc 10 386 23 is_stmt 0 view .LVU1778
.LBE1410:
.LBE1433:
.LBB1434:
.LBB1418:
	.loc 10 251 19 is_stmt 1 view .LVU1779
	adds	r0, r3, #1
.LBE1418:
.LBE1434:
	.loc 10 425 29 view .LVU1780
	movs	r3, #21
.LBB1435:
.LBB1419:
	.loc 10 251 19 view .LVU1781
	str	r0, [sp, #8]
.LVL421:
	.loc 10 251 19 is_stmt 0 view .LVU1782
.LBE1419:
.LBE1435:
	.loc 10 425 29 is_stmt 1 view .LVU1783
	strb	r3, [r4, #100]
	b	.L445
.LVL422:
.L468:
	.loc 10 435 27 view .LVU1784
	ldr	r0, [sp, #8]
	b	.L445
.L473:
	.align	2
.L472:
	.word	.LANCHOR8
.LBE1440:
.LBE1565:
	.cfi_endproc
.LFE69:
	.size	scpiParser_detectProgramMessageUnit.constprop.0, .-scpiParser_detectProgramMessageUnit.constprop.0
	.section	.text.neopixel_send_buffer_core.constprop.0,"ax",%progbits
	.align	1
	.p2align 2,,3
	.syntax unified
	.thumb
	.thumb_func
	.fpu fpv4-sp-d16
	.type	neopixel_send_buffer_core.constprop.0, %function
neopixel_send_buffer_core.constprop.0:
.LFB59:
	.file 15 "src/mcu/microchip/samd51/neopixel.c"
	.loc 15 40 13 view -0
	.cfi_startproc
	@ args = 0, pretend = 0, frame = 0
	@ frame_needed = 0, uses_anonymous_args = 0
	@ link register save eliminated.
.LVL423:
	.loc 15 42 5 view .LVU1786
	.syntax unified
@ 42 "src/mcu/microchip/samd51/neopixel.c" 1
	        push    {r4, r5, r6, lr};        add     r3, r2, r3;loopLoad:        ldrb r5, [r2, #0];        add  r2, #1;        movs    r4, #128;loopBit:        str r1, [r0, #4];        movs r6, #3; d2: subs r6, #1; bne d2;        tst r4, r5;        bne skipclr;        str r1, [r0, #0];skipclr:        movs r6, #6; d0: subs r6, #1; bne d0;        str r1, [r0, #0];        asrs     r4, r4, #1;        beq     nextbyte;        uxtb    r4, r4;        movs r6, #2; d1: subs r6, #1; bne d1;        b       loopBit;nextbyte:        cmp r2, r3;        bcs stop;        b loopLoad;stop:        pop {r4, r5, r6, pc};
@ 0 "" 2
	.loc 15 89 1 view .LVU1787
	.thumb
	.syntax unified
	bx	lr
	.cfi_endproc
.LFE59:
	.size	neopixel_send_buffer_core.constprop.0, .-neopixel_send_buffer_core.constprop.0
	.section	.text.RGBLED_set_color,"ax",%progbits
	.align	1
	.p2align 2,,3
	.syntax unified
	.thumb
	.thumb_func
	.fpu fpv4-sp-d16
	.type	RGBLED_set_color, %function
RGBLED_set_color:
.LVL424:
.LFB295:
	.loc 15 120 39 view -0
	.cfi_startproc
	@ args = 0, pretend = 0, frame = 0
	@ frame_needed = 0, uses_anonymous_args = 0
	.loc 15 122 5 view .LVU1789
	.loc 15 124 5 view .LVU1790
	.loc 15 125 5 view .LVU1791
	.loc 15 126 5 view .LVU1792
	.loc 15 128 5 view .LVU1793
.LBB1576:
.LBI1576:
	.loc 15 92 20 view .LVU1794
.LBB1577:
	.loc 15 96 5 is_stmt 0 view .LVU1795
	ldr	r2, .L482
	mov	r1, #4194304
.LBE1577:
.LBE1576:
	.loc 15 120 39 view .LVU1796
	push	{r3, lr}
	.cfi_def_cfa_offset 8
	.cfi_offset 3, -8
	.cfi_offset 14, -4
.LBB1588:
.LBB1586:
	.loc 15 96 5 view .LVU1797
	str	r1, [r2, #136]
	.loc 15 104 5 view .LVU1798
	movw	r3, #4095
	str	r1, [r2, #148]
.LVL425:
.L476:
.LBB1578:
.LBB1579:
	.loc 15 32 9 view .LVU1799
	.syntax unified
@ 32 "src/mcu/microchip/samd51/neopixel.c" 1
	nop
@ 0 "" 2
.LVL426:
	.loc 15 31 5 view .LVU1800
	.thumb
	.syntax unified
	subs	r3, r3, #1
.LVL427:
	.loc 15 31 5 view .LVU1801
	bne	.L476
.LVL428:
	.loc 15 31 5 view .LVU1802
.LBE1579:
.LBE1578:
.LBB1580:
.LBB1581:
	.file 16 "/Users/margaret/Github/tinylogicfriend/lib/tinyusb/hw/mcu/microchip/samd51/CMSIS/Include/cmsis_gcc.h"
	.loc 16 313 3 view .LVU1803
	.syntax unified
@ 313 "/Users/margaret/Github/tinylogicfriend/lib/tinyusb/hw/mcu/microchip/samd51/CMSIS/Include/cmsis_gcc.h" 1
	MRS r3, primask
@ 0 "" 2
	.thumb
	.syntax unified
.LBE1581:
.LBE1580:
	.loc 15 110 8 view .LVU1804
	cbnz	r3, .L477
.LBB1582:
.LBB1583:
	.loc 16 96 3 view .LVU1805
	.syntax unified
@ 96 "/Users/margaret/Github/tinylogicfriend/lib/tinyusb/hw/mcu/microchip/samd51/CMSIS/Include/cmsis_gcc.h" 1
	cpsid i
@ 0 "" 2
	.thumb
	.syntax unified
.LBE1583:
.LBE1582:
	.loc 15 112 9 view .LVU1806
	bl	neopixel_send_buffer_core.constprop.0
.LVL429:
.LBB1584:
.LBB1585:
	.loc 16 85 3 view .LVU1807
	.syntax unified
@ 85 "/Users/margaret/Github/tinylogicfriend/lib/tinyusb/hw/mcu/microchip/samd51/CMSIS/Include/cmsis_gcc.h" 1
	cpsie i
@ 0 "" 2
	.thumb
	.syntax unified
.LBE1585:
.LBE1584:
.LBE1586:
.LBE1588:
	.loc 15 129 1 view .LVU1808
	pop	{r3, pc}
.L477:
	pop	{r3, lr}
	.cfi_restore 14
	.cfi_restore 3
	.cfi_def_cfa_offset 0
.LBB1589:
.LBB1587:
	.loc 15 115 9 view .LVU1809
	b	neopixel_send_buffer_core.constprop.0
.LVL430:
.L483:
	.align	2
.L482:
	.word	1090551808
.LBE1587:
.LBE1589:
	.cfi_endproc
.LFE295:
	.size	RGBLED_set_color, .-RGBLED_set_color
	.section	.text.logic_capture_stop,"ax",%progbits
	.align	1
	.p2align 2,,3
	.syntax unified
	.thumb
	.thumb_func
	.fpu fpv4-sp-d16
	.type	logic_capture_stop, %function
logic_capture_stop:
.LFB296:
	.loc 4 168 31 is_stmt 1 view -0
	.cfi_startproc
	@ args = 0, pretend = 0, frame = 0
	@ frame_needed = 0, uses_anonymous_args = 0
	@ link register save eliminated.
	.loc 4 169 5 view .LVU1811
.LBB1607:
	.loc 4 169 10 view .LVU1812
.LVL431:
	.loc 4 169 41 view .LVU1813
.LBE1607:
	.loc 4 168 31 is_stmt 0 view .LVU1814
	push	{r4}
	.cfi_def_cfa_offset 4
	.cfi_offset 4, -4
.LBB1622:
.LBB1608:
.LBB1609:
.LBB1610:
	.file 17 "/Users/margaret/Github/tinylogicfriend/lib/tinyusb/hw/mcu/microchip/samd51/CMSIS/Include/core_cm4.h"
	.loc 17 1710 52 view .LVU1815
	ldr	r1, .L488
.LBE1610:
.LBE1609:
.LBE1608:
	.loc 4 169 19 view .LVU1816
	movs	r3, #12
.LBB1619:
.LBB1617:
.LBB1615:
	.loc 17 1710 54 view .LVU1817
	movs	r0, #1
.LVL432:
.L485:
	.loc 17 1710 54 view .LVU1818
.LBE1615:
.LBE1617:
.LBE1619:
	.loc 4 170 9 is_stmt 1 discriminator 3 view .LVU1819
.LBB1620:
.LBI1608:
	.loc 17 1706 22 discriminator 3 view .LVU1820
.LBE1620:
.LBE1622:
	.loc 17 1708 3 discriminator 3 view .LVU1821
.LBB1623:
.LBB1621:
.LBB1618:
.LBI1609:
	.loc 17 1706 22 discriminator 3 view .LVU1822
.LBB1616:
	.loc 17 1710 5 discriminator 3 view .LVU1823
	.loc 17 1710 54 is_stmt 0 discriminator 3 view .LVU1824
	lsl	r2, r0, r3
	.loc 17 1710 52 discriminator 3 view .LVU1825
	str	r2, [r1, #128]
	.loc 17 1711 5 is_stmt 1 discriminator 3 view .LVU1826
.LBB1611:
.LBI1611:
	.loc 16 751 53 discriminator 3 view .LVU1827
.LBB1612:
	.loc 16 753 3 discriminator 3 view .LVU1828
	.syntax unified
@ 753 "/Users/margaret/Github/tinylogicfriend/lib/tinyusb/hw/mcu/microchip/samd51/CMSIS/Include/cmsis_gcc.h" 1
	dsb 0xF
@ 0 "" 2
	.thumb
	.syntax unified
.LBE1612:
.LBE1611:
	.loc 17 1712 5 discriminator 3 view .LVU1829
.LBB1613:
.LBI1613:
	.loc 16 740 53 discriminator 3 view .LVU1830
.LBB1614:
	.loc 16 742 3 discriminator 3 view .LVU1831
	.syntax unified
@ 742 "/Users/margaret/Github/tinylogicfriend/lib/tinyusb/hw/mcu/microchip/samd51/CMSIS/Include/cmsis_gcc.h" 1
	isb 0xF
@ 0 "" 2
.LVL433:
	.loc 16 742 3 is_stmt 0 discriminator 3 view .LVU1832
	.thumb
	.syntax unified
.LBE1614:
.LBE1613:
.LBE1616:
.LBE1618:
.LBE1621:
	.loc 4 169 65 is_stmt 1 discriminator 3 view .LVU1833
	.loc 4 169 72 is_stmt 0 discriminator 3 view .LVU1834
	adds	r3, r3, #1
.LVL434:
	.loc 4 169 41 is_stmt 1 discriminator 3 view .LVU1835
	.loc 4 169 5 is_stmt 0 discriminator 3 view .LVU1836
	cmp	r3, #28
	bne	.L485
.LBE1623:
	.loc 4 172 5 is_stmt 1 view .LVU1837
.LVL435:
.LBB1624:
.LBI1624:
	.loc 17 1706 22 view .LVU1838
.LBE1624:
	.loc 17 1708 3 view .LVU1839
.LBB1631:
.LBB1625:
.LBI1625:
	.loc 17 1706 22 view .LVU1840
.LBB1626:
	.loc 17 1710 5 view .LVU1841
	.loc 17 1710 52 is_stmt 0 view .LVU1842
	mov	r3, #2048
.LVL436:
	.loc 17 1710 52 view .LVU1843
	str	r3, [r1, #140]
	.loc 17 1711 5 is_stmt 1 view .LVU1844
.LBB1627:
.LBI1627:
	.loc 16 751 53 view .LVU1845
.LBB1628:
	.loc 16 753 3 view .LVU1846
	.syntax unified
@ 753 "/Users/margaret/Github/tinylogicfriend/lib/tinyusb/hw/mcu/microchip/samd51/CMSIS/Include/cmsis_gcc.h" 1
	dsb 0xF
@ 0 "" 2
	.thumb
	.syntax unified
.LBE1628:
.LBE1627:
	.loc 17 1712 5 view .LVU1847
.LBB1629:
.LBI1629:
	.loc 16 740 53 view .LVU1848
.LBB1630:
	.loc 16 742 3 view .LVU1849
	.syntax unified
@ 742 "/Users/margaret/Github/tinylogicfriend/lib/tinyusb/hw/mcu/microchip/samd51/CMSIS/Include/cmsis_gcc.h" 1
	isb 0xF
@ 0 "" 2
.LVL437:
	.loc 16 742 3 is_stmt 0 view .LVU1850
	.thumb
	.syntax unified
.LBE1630:
.LBE1629:
.LBE1626:
.LBE1625:
.LBE1631:
	.loc 4 173 5 is_stmt 1 view .LVU1851
	.loc 4 173 27 is_stmt 0 view .LVU1852
	ldr	r1, .L488+4
	.loc 4 174 35 view .LVU1853
	ldr	r2, .L488+8
	.loc 4 173 27 view .LVU1854
	ldrb	r3, [r1]	@ zero_extendqisi2
	.loc 4 176 13 view .LVU1855
	ldr	r4, .L488+12
	.loc 4 173 27 view .LVU1856
	bfc	r3, #1, #1
	strb	r3, [r1]
	.loc 4 174 5 is_stmt 1 view .LVU1857
	.loc 4 174 35 is_stmt 0 view .LVU1858
	ldr	r3, [r2]
	bfc	r3, #1, #1
	str	r3, [r2]
	.loc 4 176 5 is_stmt 1 view .LVU1859
	.loc 4 176 13 is_stmt 0 view .LVU1860
	movs	r1, #0
	strb	r1, [r4]
	.loc 4 177 5 is_stmt 1 view .LVU1861
	.loc 4 179 5 view .LVU1862
	mov	r0, #1114112
	.loc 4 181 1 is_stmt 0 view .LVU1863
	ldr	r4, [sp], #4
	.cfi_restore 4
	.cfi_def_cfa_offset 0
	.loc 4 179 5 view .LVU1864
	b	RGBLED_set_color
.LVL438:
.L489:
	.align	2
.L488:
	.word	-536813312
	.word	1073752064
	.word	1073756160
	.word	.LANCHOR9
	.cfi_endproc
.LFE296:
	.size	logic_capture_stop, .-logic_capture_stop
	.section	.text.EIC_Handler,"ax",%progbits
	.align	1
	.p2align 2,,3
	.syntax unified
	.thumb
	.thumb_func
	.fpu fpv4-sp-d16
	.type	EIC_Handler, %function
EIC_Handler:
.LFB298:
	.loc 4 36 24 is_stmt 1 view -0
	.cfi_startproc
	@ args = 0, pretend = 0, frame = 0
	@ frame_needed = 0, uses_anonymous_args = 0
	@ link register save eliminated.
	.loc 4 38 5 view .LVU1866
	.loc 4 36 24 is_stmt 0 view .LVU1867
	push	{r4, r5}
	.cfi_def_cfa_offset 8
	.cfi_offset 4, -8
	.cfi_offset 5, -4
	.loc 4 38 22 view .LVU1868
	ldr	r3, .L497
	.loc 4 41 31 view .LVU1869
	ldr	r2, .L497+4
	.loc 4 44 23 view .LVU1870
	ldr	r0, .L497+8
	ldr	r4, .L497+12
	.loc 4 38 22 view .LVU1871
	movw	r1, #65535
	str	r1, [r3, #20]
	.loc 4 39 5 is_stmt 1 view .LVU1872
	.loc 4 41 31 is_stmt 0 view .LVU1873
	movs	r1, #128
	.loc 4 39 41 view .LVU1874
	ldr	r5, [r3, #56]
.LVL439:
	.loc 4 41 5 is_stmt 1 view .LVU1875
	.loc 4 41 31 is_stmt 0 view .LVU1876
	strb	r1, [r2, #5]
	.loc 4 44 5 is_stmt 1 view .LVU1877
	.loc 4 44 23 is_stmt 0 view .LVU1878
	ldrh	r1, [r0]
	.loc 4 44 8 view .LVU1879
	ldr	r3, [r4]
	cmp	r1, r3
	bcs	.L491
.L492:
	.loc 4 48 9 is_stmt 1 discriminator 1 view .LVU1880
	.loc 4 46 15 discriminator 1 view .LVU1881
	.loc 4 46 37 is_stmt 0 discriminator 1 view .LVU1882
	ldr	r3, [r2, #16]
	.loc 4 46 15 discriminator 1 view .LVU1883
	lsls	r3, r3, #29
	bmi	.L492
	.loc 4 50 9 is_stmt 1 view .LVU1884
	.loc 4 50 35 is_stmt 0 view .LVU1885
	ldr	r3, .L497+16
	.loc 4 50 55 view .LVU1886
	ldrh	r2, [r2, #20]
	.loc 4 50 35 view .LVU1887
	strh	r2, [r3, r1, lsl #1]	@ movhi
	.loc 4 51 9 is_stmt 1 view .LVU1888
	.loc 4 51 35 is_stmt 0 view .LVU1889
	ldr	r2, .L497+20
	.loc 4 52 22 view .LVU1890
	adds	r3, r1, #1
	.loc 4 39 20 view .LVU1891
	strh	r5, [r2, r1, lsl #1]	@ movhi
	.loc 4 52 9 is_stmt 1 view .LVU1892
	.loc 4 52 22 is_stmt 0 view .LVU1893
	strh	r3, [r0]	@ movhi
	.loc 4 54 9 is_stmt 1 view .LVU1894
	.loc 4 60 1 is_stmt 0 view .LVU1895
	pop	{r4, r5}
	.cfi_remember_state
	.cfi_restore 5
	.cfi_restore 4
	.cfi_def_cfa_offset 0
.LVL440:
	.loc 4 60 1 view .LVU1896
	bx	lr
.LVL441:
.L491:
	.cfi_restore_state
	.loc 4 57 5 is_stmt 1 view .LVU1897
	.loc 4 60 1 is_stmt 0 view .LVU1898
	pop	{r4, r5}
	.cfi_restore 5
	.cfi_restore 4
	.cfi_def_cfa_offset 0
.LVL442:
	.loc 4 57 5 view .LVU1899
	b	logic_capture_stop
.LVL443:
.L498:
	.align	2
.L497:
	.word	1073752064
	.word	1073756160
	.word	.LANCHOR1
	.word	.LANCHOR10
	.word	timestamps
	.word	values
	.cfi_endproc
.LFE298:
	.size	EIC_Handler, .-EIC_Handler
	.section	.text.EIC_0_Handler,"ax",%progbits
	.align	1
	.p2align 2,,3
	.syntax unified
	.thumb
	.thumb_func
	.fpu fpv4-sp-d16
	.type	EIC_0_Handler, %function
EIC_0_Handler:
.LFB299:
	.loc 4 62 26 is_stmt 1 view -0
	.cfi_startproc
	@ args = 0, pretend = 0, frame = 0
	@ frame_needed = 0, uses_anonymous_args = 0
	@ link register save eliminated.
	.loc 4 62 28 view .LVU1901
	b	EIC_Handler
.LVL444:
	.cfi_endproc
.LFE299:
	.size	EIC_0_Handler, .-EIC_0_Handler
	.section	.text.EIC_1_Handler,"ax",%progbits
	.align	1
	.p2align 2,,3
	.syntax unified
	.thumb
	.thumb_func
	.fpu fpv4-sp-d16
	.type	EIC_1_Handler, %function
EIC_1_Handler:
.LFB301:
	.cfi_startproc
	@ args = 0, pretend = 0, frame = 0
	@ frame_needed = 0, uses_anonymous_args = 0
	@ link register save eliminated.
	b	EIC_Handler
	.cfi_endproc
.LFE301:
	.size	EIC_1_Handler, .-EIC_1_Handler
	.section	.text.EIC_2_Handler,"ax",%progbits
	.align	1
	.p2align 2,,3
	.syntax unified
	.thumb
	.thumb_func
	.fpu fpv4-sp-d16
	.type	EIC_2_Handler, %function
EIC_2_Handler:
.LFB302:
	.cfi_startproc
	@ args = 0, pretend = 0, frame = 0
	@ frame_needed = 0, uses_anonymous_args = 0
	@ link register save eliminated.
	b	EIC_Handler
	.cfi_endproc
.LFE302:
	.size	EIC_2_Handler, .-EIC_2_Handler
	.section	.text.EIC_3_Handler,"ax",%progbits
	.align	1
	.p2align 2,,3
	.syntax unified
	.thumb
	.thumb_func
	.fpu fpv4-sp-d16
	.type	EIC_3_Handler, %function
EIC_3_Handler:
.LFB303:
	.cfi_startproc
	@ args = 0, pretend = 0, frame = 0
	@ frame_needed = 0, uses_anonymous_args = 0
	@ link register save eliminated.
	b	EIC_Handler
	.cfi_endproc
.LFE303:
	.size	EIC_3_Handler, .-EIC_3_Handler
	.section	.text.EIC_4_Handler,"ax",%progbits
	.align	1
	.p2align 2,,3
	.syntax unified
	.thumb
	.thumb_func
	.fpu fpv4-sp-d16
	.type	EIC_4_Handler, %function
EIC_4_Handler:
.LFB304:
	.cfi_startproc
	@ args = 0, pretend = 0, frame = 0
	@ frame_needed = 0, uses_anonymous_args = 0
	@ link register save eliminated.
	b	EIC_Handler
	.cfi_endproc
.LFE304:
	.size	EIC_4_Handler, .-EIC_4_Handler
	.section	.text.EIC_5_Handler,"ax",%progbits
	.align	1
	.p2align 2,,3
	.syntax unified
	.thumb
	.thumb_func
	.fpu fpv4-sp-d16
	.type	EIC_5_Handler, %function
EIC_5_Handler:
.LFB305:
	.cfi_startproc
	@ args = 0, pretend = 0, frame = 0
	@ frame_needed = 0, uses_anonymous_args = 0
	@ link register save eliminated.
	b	EIC_Handler
	.cfi_endproc
.LFE305:
	.size	EIC_5_Handler, .-EIC_5_Handler
	.section	.text.EIC_6_Handler,"ax",%progbits
	.align	1
	.p2align 2,,3
	.syntax unified
	.thumb
	.thumb_func
	.fpu fpv4-sp-d16
	.type	EIC_6_Handler, %function
EIC_6_Handler:
.LFB306:
	.cfi_startproc
	@ args = 0, pretend = 0, frame = 0
	@ frame_needed = 0, uses_anonymous_args = 0
	@ link register save eliminated.
	b	EIC_Handler
	.cfi_endproc
.LFE306:
	.size	EIC_6_Handler, .-EIC_6_Handler
	.section	.text.EIC_7_Handler,"ax",%progbits
	.align	1
	.p2align 2,,3
	.syntax unified
	.thumb
	.thumb_func
	.fpu fpv4-sp-d16
	.type	EIC_7_Handler, %function
EIC_7_Handler:
.LFB307:
	.cfi_startproc
	@ args = 0, pretend = 0, frame = 0
	@ frame_needed = 0, uses_anonymous_args = 0
	@ link register save eliminated.
	b	EIC_Handler
	.cfi_endproc
.LFE307:
	.size	EIC_7_Handler, .-EIC_7_Handler
	.section	.text.EIC_8_Handler,"ax",%progbits
	.align	1
	.p2align 2,,3
	.syntax unified
	.thumb
	.thumb_func
	.fpu fpv4-sp-d16
	.type	EIC_8_Handler, %function
EIC_8_Handler:
.LFB308:
	.cfi_startproc
	@ args = 0, pretend = 0, frame = 0
	@ frame_needed = 0, uses_anonymous_args = 0
	@ link register save eliminated.
	b	EIC_Handler
	.cfi_endproc
.LFE308:
	.size	EIC_8_Handler, .-EIC_8_Handler
	.section	.text.EIC_9_Handler,"ax",%progbits
	.align	1
	.p2align 2,,3
	.syntax unified
	.thumb
	.thumb_func
	.fpu fpv4-sp-d16
	.type	EIC_9_Handler, %function
EIC_9_Handler:
.LFB309:
	.cfi_startproc
	@ args = 0, pretend = 0, frame = 0
	@ frame_needed = 0, uses_anonymous_args = 0
	@ link register save eliminated.
	b	EIC_Handler
	.cfi_endproc
.LFE309:
	.size	EIC_9_Handler, .-EIC_9_Handler
	.section	.text.EIC_10_Handler,"ax",%progbits
	.align	1
	.p2align 2,,3
	.syntax unified
	.thumb
	.thumb_func
	.fpu fpv4-sp-d16
	.type	EIC_10_Handler, %function
EIC_10_Handler:
.LFB310:
	.cfi_startproc
	@ args = 0, pretend = 0, frame = 0
	@ frame_needed = 0, uses_anonymous_args = 0
	@ link register save eliminated.
	b	EIC_Handler
	.cfi_endproc
.LFE310:
	.size	EIC_10_Handler, .-EIC_10_Handler
	.section	.text.EIC_11_Handler,"ax",%progbits
	.align	1
	.p2align 2,,3
	.syntax unified
	.thumb
	.thumb_func
	.fpu fpv4-sp-d16
	.type	EIC_11_Handler, %function
EIC_11_Handler:
.LFB311:
	.cfi_startproc
	@ args = 0, pretend = 0, frame = 0
	@ frame_needed = 0, uses_anonymous_args = 0
	@ link register save eliminated.
	b	EIC_Handler
	.cfi_endproc
.LFE311:
	.size	EIC_11_Handler, .-EIC_11_Handler
	.section	.text.EIC_12_Handler,"ax",%progbits
	.align	1
	.p2align 2,,3
	.syntax unified
	.thumb
	.thumb_func
	.fpu fpv4-sp-d16
	.type	EIC_12_Handler, %function
EIC_12_Handler:
.LFB312:
	.cfi_startproc
	@ args = 0, pretend = 0, frame = 0
	@ frame_needed = 0, uses_anonymous_args = 0
	@ link register save eliminated.
	b	EIC_Handler
	.cfi_endproc
.LFE312:
	.size	EIC_12_Handler, .-EIC_12_Handler
	.section	.text.EIC_13_Handler,"ax",%progbits
	.align	1
	.p2align 2,,3
	.syntax unified
	.thumb
	.thumb_func
	.fpu fpv4-sp-d16
	.type	EIC_13_Handler, %function
EIC_13_Handler:
.LFB313:
	.cfi_startproc
	@ args = 0, pretend = 0, frame = 0
	@ frame_needed = 0, uses_anonymous_args = 0
	@ link register save eliminated.
	b	EIC_Handler
	.cfi_endproc
.LFE313:
	.size	EIC_13_Handler, .-EIC_13_Handler
	.section	.text.EIC_14_Handler,"ax",%progbits
	.align	1
	.p2align 2,,3
	.syntax unified
	.thumb
	.thumb_func
	.fpu fpv4-sp-d16
	.type	EIC_14_Handler, %function
EIC_14_Handler:
.LFB314:
	.cfi_startproc
	@ args = 0, pretend = 0, frame = 0
	@ frame_needed = 0, uses_anonymous_args = 0
	@ link register save eliminated.
	b	EIC_Handler
	.cfi_endproc
.LFE314:
	.size	EIC_14_Handler, .-EIC_14_Handler
	.section	.text.EIC_15_Handler,"ax",%progbits
	.align	1
	.p2align 2,,3
	.syntax unified
	.thumb
	.thumb_func
	.fpu fpv4-sp-d16
	.type	EIC_15_Handler, %function
EIC_15_Handler:
.LFB315:
	.cfi_startproc
	@ args = 0, pretend = 0, frame = 0
	@ frame_needed = 0, uses_anonymous_args = 0
	@ link register save eliminated.
	b	EIC_Handler
	.cfi_endproc
.LFE315:
	.size	EIC_15_Handler, .-EIC_15_Handler
	.section	.text.STOP_Execute,"ax",%progbits
	.align	1
	.p2align 2,,3
	.syntax unified
	.thumb
	.thumb_func
	.fpu fpv4-sp-d16
	.type	STOP_Execute, %function
STOP_Execute:
.LVL445:
.LFB316:
	.file 18 "src/scpi-def.c"
	.loc 18 425 53 view -0
	.cfi_startproc
	@ args = 0, pretend = 0, frame = 0
	@ frame_needed = 0, uses_anonymous_args = 0
	.loc 18 426 5 view .LVU1903
	.loc 18 427 5 view .LVU1904
	.loc 18 425 53 is_stmt 0 view .LVU1905
	push	{r3, lr}
	.cfi_def_cfa_offset 8
	.cfi_offset 3, -8
	.cfi_offset 14, -4
	.loc 18 427 9 view .LVU1906
	ldr	r3, .L522
	.loc 18 427 8 view .LVU1907
	ldrb	r3, [r3]	@ zero_extendqisi2
	cbnz	r3, .L521
.LVL446:
.L516:
	.loc 18 430 5 is_stmt 1 view .LVU1908
.LBB1634:
.LBI1634:
	.loc 2 130 6 view .LVU1909
.LBB1635:
	.loc 2 132 3 view .LVU1910
	.loc 2 132 23 is_stmt 0 view .LVU1911
	ldr	r3, .L522+4
	movs	r2, #0
	strh	r2, [r3]	@ movhi
.LBE1635:
.LBE1634:
	.loc 18 431 5 is_stmt 1 view .LVU1912
	.loc 18 432 1 is_stmt 0 view .LVU1913
	movs	r0, #1
	pop	{r3, pc}
.LVL447:
.L521:
	.loc 18 428 9 is_stmt 1 view .LVU1914
	bl	logic_capture_stop
.LVL448:
	.loc 18 428 9 is_stmt 0 view .LVU1915
	b	.L516
.L523:
	.align	2
.L522:
	.word	.LANCHOR9
	.word	.LANCHOR11
	.cfi_endproc
.LFE316:
	.size	STOP_Execute, .-STOP_Execute
	.section	.text.DATA_Request,"ax",%progbits
	.align	1
	.p2align 2,,3
	.syntax unified
	.thumb
	.thumb_func
	.fpu fpv4-sp-d16
	.type	DATA_Request, %function
DATA_Request:
.LVL449:
.LFB318:
	.loc 18 404 53 is_stmt 1 view -0
	.cfi_startproc
	@ args = 0, pretend = 0, frame = 0
	@ frame_needed = 0, uses_anonymous_args = 0
	.loc 18 405 5 view .LVU1917
	.loc 18 408 5 view .LVU1918
.LBB1638:
.LBI1638:
	.loc 2 135 6 view .LVU1919
.LBB1639:
	.loc 2 137 3 view .LVU1920
.LBE1639:
.LBE1638:
	.loc 18 404 53 is_stmt 0 view .LVU1921
	push	{r4, lr}
	.cfi_def_cfa_offset 8
	.cfi_offset 4, -8
	.cfi_offset 14, -4
.LBB1641:
.LBB1640:
	.loc 2 137 18 view .LVU1922
	ldr	r2, .L526
	.loc 2 138 22 view .LVU1923
	ldr	r3, .L526+4
	movs	r0, #0
.LVL450:
	.loc 2 137 18 view .LVU1924
	movs	r4, #1
	.loc 2 138 22 view .LVU1925
	strh	r0, [r3]	@ movhi
	.loc 2 137 18 view .LVU1926
	strh	r4, [r2]	@ movhi
	.loc 2 138 3 is_stmt 1 view .LVU1927
	.loc 2 140 3 view .LVU1928
	bl	RGBLED_set_color
.LVL451:
.LBE1640:
.LBE1641:
	.loc 18 409 5 view .LVU1929
	.loc 18 410 1 is_stmt 0 view .LVU1930
	mov	r0, r4
	pop	{r4, pc}
.L527:
	.align	2
.L526:
	.word	.LANCHOR12
	.word	.LANCHOR13
	.cfi_endproc
.LFE318:
	.size	DATA_Request, .-DATA_Request
	.section	.text.RUN_Execute,"ax",%progbits
	.align	1
	.p2align 2,,3
	.syntax unified
	.thumb
	.thumb_func
	.fpu fpv4-sp-d16
	.type	RUN_Execute, %function
RUN_Execute:
.LVL452:
.LFB320:
	.loc 18 413 52 is_stmt 1 view -0
	.cfi_startproc
	@ args = 0, pretend = 0, frame = 0
	@ frame_needed = 0, uses_anonymous_args = 0
	.loc 18 414 5 view .LVU1932
	.loc 18 415 5 view .LVU1933
.LBB1664:
.LBI1664:
	.loc 3 127 6 view .LVU1934
.LBE1664:
	.loc 3 129 3 view .LVU1935
.LBB1680:
.LBB1665:
.LBI1665:
	.file 19 "/Users/margaret/Github/tinylogicfriend/lib/tinyusb/hw/mcu/microchip/samd51/hal/include/hal_gpio.h"
	.loc 19 147 20 view .LVU1936
.LBE1665:
.LBE1680:
	.loc 19 149 2 view .LVU1937
.LBB1681:
.LBB1676:
.LBB1666:
.LBI1666:
	.file 20 "/Users/margaret/Github/tinylogicfriend/lib/tinyusb/hw/mcu/microchip/samd51/hpl/port/hpl_gpio_base.h"
	.loc 20 86 20 view .LVU1938
.LBE1666:
.LBE1676:
.LBE1681:
	.loc 20 88 2 view .LVU1939
	.loc 20 91 3 view .LVU1940
.LBB1682:
.LBB1677:
.LBB1673:
.LBB1667:
.LBI1667:
	.file 21 "/Users/margaret/Github/tinylogicfriend/lib/tinyusb/hw/mcu/microchip/samd51/hri/hri_port_d51.h"
	.loc 21 1403 20 view .LVU1941
.LBB1668:
	.loc 21 1405 2 view .LVU1942
	.loc 21 1405 50 is_stmt 0 view .LVU1943
	ldr	r2, .L541
.LBE1668:
.LBE1667:
.LBE1673:
.LBE1677:
.LBE1682:
	.loc 18 413 52 view .LVU1944
	push	{r3, r4, r5, lr}
	.cfi_def_cfa_offset 16
	.cfi_offset 3, -16
	.cfi_offset 4, -12
	.cfi_offset 5, -8
	.cfi_offset 14, -4
.LBB1683:
.LBB1678:
.LBB1674:
.LBB1671:
.LBB1669:
	.loc 21 1405 50 view .LVU1945
	mov	r1, #65536
.LBE1669:
.LBE1671:
.LBE1674:
.LBE1678:
.LBE1683:
.LBB1684:
.LBB1685:
	.loc 2 132 23 view .LVU1946
	ldr	r3, .L541+4
.LBE1685:
.LBE1684:
.LBB1688:
.LBB1679:
.LBB1675:
.LBB1672:
.LBB1670:
	.loc 21 1405 50 view .LVU1947
	str	r1, [r2, #20]
.LVL453:
	.loc 21 1405 50 view .LVU1948
.LBE1670:
.LBE1672:
.LBE1675:
.LBE1679:
.LBE1688:
	.loc 18 417 5 is_stmt 1 view .LVU1949
.LBB1689:
.LBI1684:
	.loc 2 130 6 view .LVU1950
.LBB1686:
	.loc 2 132 3 view .LVU1951
	.loc 2 132 23 is_stmt 0 view .LVU1952
	movs	r5, #0
.LBE1686:
.LBE1689:
.LBB1690:
.LBB1691:
	.loc 4 103 5 view .LVU1953
	mov	r0, #65280
.LVL454:
	.loc 4 103 5 view .LVU1954
.LBE1691:
.LBE1690:
.LBB1718:
.LBB1687:
	.loc 2 132 23 view .LVU1955
	strh	r5, [r3]	@ movhi
.LBE1687:
.LBE1718:
	.loc 18 419 5 is_stmt 1 view .LVU1956
.LBB1719:
.LBI1690:
	.loc 4 101 6 view .LVU1957
.LBB1715:
	.loc 4 103 5 view .LVU1958
	.loc 4 108 19 is_stmt 0 view .LVU1959
	ldr	r4, .L541+8
	.loc 4 103 5 view .LVU1960
	bl	RGBLED_set_color
.LVL455:
	.loc 4 108 5 is_stmt 1 view .LVU1961
	.loc 4 109 13 is_stmt 0 view .LVU1962
	ldr	r0, .L541+12
	.loc 4 112 20 view .LVU1963
	ldr	r1, .L541+16
	.loc 4 114 34 view .LVU1964
	ldr	r2, .L541+20
	.loc 4 108 19 view .LVU1965
	strh	r5, [r4]	@ movhi
	.loc 4 109 5 is_stmt 1 view .LVU1966
	.loc 4 110 5 view .LVU1967
	.loc 4 112 5 view .LVU1968
	.loc 4 109 13 is_stmt 0 view .LVU1969
	movs	r3, #1
	strb	r3, [r0]
	.loc 4 112 20 view .LVU1970
	strb	r3, [r1]
	.loc 4 114 5 is_stmt 1 view .LVU1971
	.loc 4 114 34 is_stmt 0 view .LVU1972
	ldr	r3, [r2]
	orr	r3, r3, #1
	str	r3, [r2]
	.loc 4 116 5 is_stmt 1 view .LVU1973
	.loc 4 116 11 is_stmt 0 view .LVU1974
	b	.L530
.L540:
	.loc 4 117 33 view .LVU1975
	ldr	r3, [r2, #16]
	.loc 4 116 35 view .LVU1976
	cbz	r3, .L529
.L530:
	.loc 4 119 5 is_stmt 1 view .LVU1977
	.loc 4 116 11 view .LVU1978
	.loc 4 116 25 is_stmt 0 view .LVU1979
	ldr	r3, [r1, #4]
	.loc 4 116 11 view .LVU1980
	cmp	r3, #0
	bne	.L540
.L529:
	.loc 4 122 5 is_stmt 1 view .LVU1981
	.loc 4 122 33 is_stmt 0 view .LVU1982
	ldr	r0, .L541
	ldr	r5, .L541+24
	str	r5, [r0, #40]
	.loc 4 130 5 is_stmt 1 view .LVU1983
	.loc 4 138 21 is_stmt 0 view .LVU1984
	ldr	r2, .L541+16
	.loc 4 130 33 view .LVU1985
	ldr	r5, .L541+28
	str	r5, [r0, #40]
	.loc 4 138 5 is_stmt 1 view .LVU1986
	.loc 4 138 21 is_stmt 0 view .LVU1987
	movw	r3, #65535
	.loc 4 139 24 view .LVU1988
	mov	r1, #858993459
	.loc 4 144 20 view .LVU1989
	movs	r0, #2
	.loc 4 138 21 view .LVU1990
	str	r3, [r2, #24]
	.loc 4 139 5 is_stmt 1 view .LVU1991
	.loc 4 139 24 is_stmt 0 view .LVU1992
	str	r1, [r2, #28]
	.loc 4 140 5 is_stmt 1 view .LVU1993
	.loc 4 140 24 is_stmt 0 view .LVU1994
	str	r1, [r2, #32]
	.loc 4 141 5 is_stmt 1 view .LVU1995
	.loc 4 141 23 is_stmt 0 view .LVU1996
	str	r3, [r2, #16]
	.loc 4 142 5 is_stmt 1 view .LVU1997
	.loc 4 142 24 is_stmt 0 view .LVU1998
	str	r3, [r2, #48]
	.loc 4 144 5 is_stmt 1 view .LVU1999
	.loc 4 144 20 is_stmt 0 view .LVU2000
	strb	r0, [r2]
	.loc 4 145 5 is_stmt 1 view .LVU2001
.L531:
	.loc 4 145 52 view .LVU2002
	.loc 4 145 11 view .LVU2003
	.loc 4 145 25 is_stmt 0 view .LVU2004
	ldr	r3, [r2, #4]
	.loc 4 145 11 view .LVU2005
	ands	r3, r3, #2
	bne	.L531
	.loc 4 148 5 is_stmt 1 view .LVU2006
	.loc 4 148 28 is_stmt 0 view .LVU2007
	ldr	r1, .L541+20
	movs	r0, #2
	str	r0, [r1]
	.loc 4 150 5 is_stmt 1 view .LVU2008
	.loc 4 150 31 is_stmt 0 view .LVU2009
	movs	r0, #1
	strb	r0, [r1, #9]
	.loc 4 154 5 is_stmt 1 view .LVU2010
	.loc 4 154 19 is_stmt 0 view .LVU2011
	ldr	r1, .L541+32
	strh	r3, [r1]	@ movhi
	.loc 4 155 5 is_stmt 1 view .LVU2012
	.loc 4 155 18 is_stmt 0 view .LVU2013
	ldr	r1, .L541+36
	.loc 4 155 33 view .LVU2014
	ldr	r2, [r2, #56]
	.loc 4 157 19 view .LVU2015
	ldrh	r3, [r4]
	.loc 4 155 18 view .LVU2016
	strh	r2, [r1]	@ movhi
	.loc 4 157 5 is_stmt 1 view .LVU2017
.LBB1692:
.LBB1693:
.LBB1694:
	.loc 17 1674 52 is_stmt 0 view .LVU2018
	ldr	r1, .L541+40
.LBE1694:
.LBE1693:
.LBE1692:
	.loc 4 157 19 view .LVU2019
	add	r3, r3, r0
.LBB1701:
.LBB1698:
.LBB1695:
	.loc 17 1674 52 view .LVU2020
	mov	r2, #2048
.LBE1695:
.LBE1698:
.LBE1701:
	.loc 4 157 19 view .LVU2021
	strh	r3, [r4]	@ movhi
	.loc 4 159 5 is_stmt 1 view .LVU2022
.LVL456:
.LBB1702:
.LBI1692:
	.loc 17 1670 22 view .LVU2023
.LBE1702:
.LBE1715:
.LBE1719:
	.loc 17 1672 3 view .LVU2024
.LBB1720:
.LBB1716:
.LBB1703:
.LBB1699:
.LBI1693:
	.loc 17 1670 22 view .LVU2025
.LBB1696:
	.loc 17 1674 5 view .LVU2026
.LBE1696:
.LBE1699:
.LBE1703:
.LBB1704:
	.loc 4 160 19 is_stmt 0 view .LVU2027
	movs	r3, #12
.LBE1704:
.LBB1712:
.LBB1700:
.LBB1697:
	.loc 17 1674 52 view .LVU2028
	str	r2, [r1, #12]
.LVL457:
	.loc 17 1674 52 view .LVU2029
.LBE1697:
.LBE1700:
.LBE1712:
.LBB1713:
	.loc 4 160 41 is_stmt 1 view .LVU2030
.L532:
	.loc 4 161 9 view .LVU2031
.LBB1705:
.LBI1705:
	.loc 17 1670 22 view .LVU2032
.LBE1705:
.LBE1713:
.LBE1716:
.LBE1720:
	.loc 17 1672 3 view .LVU2033
.LBB1721:
.LBB1717:
.LBB1714:
.LBB1710:
.LBB1706:
.LBI1706:
	.loc 17 1670 22 view .LVU2034
.LBB1707:
	.loc 17 1674 5 view .LVU2035
	.loc 17 1674 54 is_stmt 0 view .LVU2036
	lsl	r2, r0, r3
.LBE1707:
.LBE1706:
.LBE1710:
	.loc 4 160 72 view .LVU2037
	adds	r3, r3, #1
.LVL458:
	.loc 4 160 5 view .LVU2038
	cmp	r3, #28
.LBB1711:
.LBB1709:
.LBB1708:
	.loc 17 1674 52 view .LVU2039
	str	r2, [r1]
	.loc 17 1674 52 view .LVU2040
.LBE1708:
.LBE1709:
.LBE1711:
	.loc 4 160 65 is_stmt 1 view .LVU2041
.LVL459:
	.loc 4 160 41 view .LVU2042
	.loc 4 160 5 is_stmt 0 view .LVU2043
	bne	.L532
.LBE1714:
	.loc 4 163 5 is_stmt 1 view .LVU2044
	.loc 4 163 31 is_stmt 0 view .LVU2045
	ldr	r3, .L541+20
.LVL460:
	.loc 4 163 31 view .LVU2046
	movs	r2, #32
	strb	r2, [r3, #5]
	.loc 4 163 31 view .LVU2047
.LBE1717:
.LBE1721:
	.loc 18 421 5 is_stmt 1 view .LVU2048
	.loc 18 422 1 is_stmt 0 view .LVU2049
	movs	r0, #1
	pop	{r3, r4, r5, pc}
.L542:
	.align	2
.L541:
	.word	1090551808
	.word	.LANCHOR11
	.word	.LANCHOR1
	.word	.LANCHOR9
	.word	1073752064
	.word	1073756160
	.word	-805240577
	.word	1342308096
	.word	timestamps
	.word	values
	.word	-536813312
	.cfi_endproc
.LFE320:
	.size	RUN_Execute, .-RUN_Execute
	.section	.rodata.resultUInt32BaseSign.constprop.0.isra.0.str1.4,"aMS",%progbits,1
	.align	2
.LC19:
	.ascii	"0123456789ABCDEF\000"
	.section	.text.resultUInt32BaseSign.constprop.0.isra.0,"ax",%progbits
	.align	1
	.p2align 2,,3
	.syntax unified
	.thumb
	.thumb_func
	.fpu fpv4-sp-d16
	.type	resultUInt32BaseSign.constprop.0.isra.0, %function
resultUInt32BaseSign.constprop.0.isra.0:
.LVL461:
.LFB220:
	.loc 11 391 15 is_stmt 1 view -0
	.cfi_startproc
	@ args = 0, pretend = 0, frame = 56
	@ frame_needed = 0, uses_anonymous_args = 0
	.loc 11 391 15 is_stmt 0 view .LVU2051
	push	{r4, r5, r6, r7, r8, lr}
	.cfi_def_cfa_offset 24
	.cfi_offset 4, -24
	.cfi_offset 5, -20
	.cfi_offset 6, -16
	.cfi_offset 7, -12
	.cfi_offset 8, -8
	.cfi_offset 14, -4
.LBB1742:
.LBB1743:
	.file 22 "/Users/margaret/Github/tinylogicfriend/lib/tinyusb/lib/libscpi/src/utils.c"
	.loc 22 81 16 is_stmt 1 view .LVU2052
	ldr	r6, .L565
.LVL462:
	.loc 22 81 16 is_stmt 0 view .LVU2053
.LBE1743:
.LBE1742:
	.loc 11 391 15 is_stmt 1 view .LVU2054
	mov	r5, r0
	mov	r4, r2
.LBB1747:
.LBB1744:
	.loc 22 89 8 view .LVU2055
	mov	ip, r1
	.loc 22 81 16 view .LVU2056
	ldmia	r6!, {r0, r1, r2, r3}
.LVL463:
	.loc 22 81 16 is_stmt 0 view .LVU2057
.LBE1744:
.LBE1747:
	.loc 11 391 15 is_stmt 1 view .LVU2058
	sub	sp, sp, #56
	.cfi_def_cfa_offset 80
.LVL464:
.LBB1748:
.LBB1745:
	.loc 22 81 16 view .LVU2059
	mov	lr, sp
	stmia	lr!, {r0, r1, r2, r3}
	ldr	r3, [r6]
	strb	r3, [lr]
.LVL465:
	.loc 22 89 8 view .LVU2060
	cmp	ip, #0
	bne	.L544
.LVL466:
	.loc 22 90 9 view .LVU2061
	movs	r3, #48
	strb	r3, [sp, #20]
	.loc 22 90 9 is_stmt 0 view .LVU2062
	movs	r4, #1
.LVL467:
	.loc 22 90 9 view .LVU2063
	add	r6, sp, #20
.LVL468:
.L545:
	.loc 22 129 29 is_stmt 1 view .LVU2064
	add	r3, sp, #56
	add	r3, r3, r4
	movs	r2, #0
	strb	r2, [r3, #-36]
.L552:
.LVL469:
	.loc 22 129 29 is_stmt 0 view .LVU2065
.LBE1745:
.LBE1748:
.LBB1749:
.LBB1750:
	.loc 11 83 8 is_stmt 1 view .LVU2066
	ldr	r3, [r5, #48]
	cmp	r3, #0
	ble	.L553
.LVL470:
.LBB1751:
.LBB1752:
.LBB1753:
.LBB1754:
.LBB1755:
	.loc 11 58 34 view .LVU2067
	ldr	r3, [r5, #44]
	.loc 11 58 16 view .LVU2068
	ldr	r1, .L565+4
	ldr	r3, [r3, #4]
	movs	r2, #1
	mov	r0, r5
	blx	r3
.LVL471:
.L553:
	.loc 11 58 16 is_stmt 0 view .LVU2069
.LBE1755:
.LBE1754:
.LBE1753:
.LBE1752:
.LBE1751:
.LBE1750:
.LBE1749:
.LBB1756:
.LBB1757:
.LBB1758:
	.loc 11 58 34 is_stmt 1 view .LVU2070
	ldr	r3, [r5, #44]
	.loc 11 58 16 view .LVU2071
	mov	r2, r4
	ldr	r3, [r3, #4]
	mov	r1, r6
	mov	r0, r5
	blx	r3
.LVL472:
	.loc 11 58 16 is_stmt 0 view .LVU2072
.LBE1758:
.LBE1757:
.LBE1756:
	.loc 11 405 26 is_stmt 1 view .LVU2073
	ldr	r3, [r5, #48]
	adds	r3, r3, #1
	str	r3, [r5, #48]
	.loc 11 407 1 view .LVU2074
	add	sp, sp, #56
	.cfi_remember_state
	.cfi_def_cfa_offset 24
	@ sp needed
	pop	{r4, r5, r6, r7, r8, pc}
.LVL473:
.L544:
	.cfi_restore_state
.LBB1759:
.LBB1746:
	.loc 22 111 12 view .LVU2075
	cbz	r4, .L546
	.loc 22 111 18 view .LVU2076
	cmp	ip, #0
	blt	.L562
	.loc 22 86 12 view .LVU2077
	movs	r4, #0
.LVL474:
.L546:
	.loc 22 117 15 view .LVU2078
	ldr	r3, .L565+8
	cmp	ip, r3
	bhi	.L563
	.loc 22 117 15 is_stmt 0 view .LVU2079
	ldr	r3, .L565+12
	.loc 22 118 15 is_stmt 1 view .LVU2080
	ldr	r1, .L565+16
.LVL475:
.L547:
	.loc 22 118 15 is_stmt 0 view .LVU2081
	umull	r3, r2, r1, r3
.LVL476:
	.loc 22 117 15 is_stmt 1 view .LVU2082
	cmp	ip, r2, lsr #3
	.loc 22 118 15 view .LVU2083
	lsr	r3, r2, #3
.LVL477:
	.loc 22 117 15 view .LVU2084
	bcc	.L547
.LVL478:
.L548:
	.loc 22 122 37 view .LVU2085
	udiv	r2, ip, r3
	add	r6, sp, #20
.LVL479:
	.loc 22 122 37 is_stmt 0 view .LVU2086
	subs	r0, r4, #1
	.loc 22 125 15 is_stmt 1 view .LVU2087
	ldr	r7, .L565+16
	uxtb	r2, r2
.LVL480:
	.loc 22 125 15 is_stmt 0 view .LVU2088
	add	r0, r0, r6
	b	.L549
.LVL481:
.L564:
	.loc 22 126 20 is_stmt 1 view .LVU2089
	cmp	r4, #33
	beq	.L552
	.loc 22 122 37 view .LVU2090
	udiv	r2, ip, r1
.LVL482:
	.loc 22 125 15 view .LVU2091
	mov	r3, r1
	uxtb	r2, r2
.LVL483:
.L549:
	.loc 22 123 13 view .LVU2092
	add	r1, sp, #56
	add	lr, r1, r2
	.loc 22 126 9 view .LVU2093
	cmp	r3, #9
	.loc 22 123 13 view .LVU2094
	ldrb	lr, [lr, #-56]	@ zero_extendqisi2
	strb	lr, [r0, #1]!
	.loc 22 125 15 view .LVU2095
	umull	r8, r1, r7, r3
	.loc 22 124 18 view .LVU2096
	mls	ip, r3, r2, ip
.LVL484:
	.loc 22 125 15 view .LVU2097
	lsr	r1, r1, #3
	.loc 22 123 13 view .LVU2098
	add	r4, r4, #1
.LVL485:
	.loc 22 126 9 view .LVU2099
	bhi	.L564
	.loc 22 129 8 view .LVU2100
	cmp	r4, #33
	bne	.L545
	b	.L552
.LVL486:
.L563:
	.loc 22 117 15 view .LVU2101
	adds	r3, r3, #1
	b	.L548
.LVL487:
.L562:
	.loc 22 113 13 view .LVU2102
	movs	r3, #45
	.loc 22 112 18 view .LVU2103
	rsb	ip, ip, #0
.LVL488:
	.loc 22 113 13 view .LVU2104
	strb	r3, [sp, #20]
	movs	r4, #1
.LVL489:
	.loc 22 113 13 is_stmt 0 view .LVU2105
	b	.L546
.L566:
	.align	2
.L565:
	.word	.LC19
	.word	.LC17
	.word	999999999
	.word	1000000000
	.word	-858993459
.LBE1746:
.LBE1759:
	.cfi_endproc
.LFE220:
	.size	resultUInt32BaseSign.constprop.0.isra.0, .-resultUInt32BaseSign.constprop.0.isra.0
	.section	.text.My_CoreTstQ,"ax",%progbits
	.align	1
	.p2align 2,,3
	.syntax unified
	.thumb
	.thumb_func
	.fpu fpv4-sp-d16
	.type	My_CoreTstQ, %function
My_CoreTstQ:
.LVL490:
.LFB324:
	.loc 18 443 52 is_stmt 1 view -0
	.cfi_startproc
	@ args = 0, pretend = 0, frame = 0
	@ frame_needed = 0, uses_anonymous_args = 0
	.loc 18 445 5 view .LVU2107
.LBB1762:
.LBI1762:
	.loc 11 441 8 view .LVU2108
.LBE1762:
	.loc 18 443 52 is_stmt 0 view .LVU2109
	push	{r3, lr}
	.cfi_def_cfa_offset 8
	.cfi_offset 3, -8
	.cfi_offset 14, -4
.LBB1764:
.LBB1763:
	.loc 11 442 12 view .LVU2110
	movs	r2, #1
	movs	r1, #0
	bl	resultUInt32BaseSign.constprop.0.isra.0
.LVL491:
	.loc 11 442 12 view .LVU2111
.LBE1763:
.LBE1764:
	.loc 18 447 5 is_stmt 1 view .LVU2112
	.loc 18 448 1 is_stmt 0 view .LVU2113
	movs	r0, #1
	pop	{r3, pc}
	.cfi_endproc
.LFE324:
	.size	My_CoreTstQ, .-My_CoreTstQ
	.section	.text.SCPI_CoreEseQ,"ax",%progbits
	.align	1
	.p2align 2,,3
	.syntax unified
	.thumb
	.thumb_func
	.fpu fpv4-sp-d16
	.type	SCPI_CoreEseQ, %function
SCPI_CoreEseQ:
.LVL492:
.LFB325:
	.loc 8 244 47 is_stmt 1 view -0
	.cfi_startproc
	@ args = 0, pretend = 0, frame = 0
	@ frame_needed = 0, uses_anonymous_args = 0
	.loc 8 245 5 view .LVU2115
.LBB1769:
.LBI1769:
	.loc 8 85 16 view .LVU2116
.LBB1770:
	.loc 8 86 5 view .LVU2117
.LBE1770:
.LBE1769:
	.loc 8 244 47 is_stmt 0 view .LVU2118
	push	{r3, lr}
	.cfi_def_cfa_offset 8
	.cfi_offset 3, -8
	.cfi_offset 14, -4
.LBB1773:
.LBB1771:
	.loc 8 86 33 view .LVU2119
	cbz	r0, .L571
	.loc 8 87 9 is_stmt 1 view .LVU2120
.LBE1771:
.LBE1773:
.LBB1774:
.LBB1775:
	.loc 11 442 12 is_stmt 0 view .LVU2121
	ldrh	r1, [r0, #78]
.LVL493:
	.loc 11 442 12 view .LVU2122
.LBE1775:
.LBI1774:
	.loc 11 441 8 is_stmt 1 view .LVU2123
.LBB1776:
	.loc 11 442 12 is_stmt 0 view .LVU2124
	movs	r2, #1
	bl	resultUInt32BaseSign.constprop.0.isra.0
.LVL494:
	.loc 11 442 12 view .LVU2125
.LBE1776:
.LBE1774:
	.loc 8 246 5 is_stmt 1 view .LVU2126
	.loc 8 247 1 is_stmt 0 view .LVU2127
	movs	r0, #1
	pop	{r3, pc}
.LVL495:
.L571:
.LBB1778:
.LBB1772:
	.loc 8 247 1 view .LVU2128
	mov	r1, r0
.LVL496:
	.loc 8 247 1 view .LVU2129
.LBE1772:
.LBE1778:
.LBB1779:
	.loc 11 441 8 is_stmt 1 view .LVU2130
.LBB1777:
	.loc 11 442 12 is_stmt 0 view .LVU2131
	movs	r2, #1
	bl	resultUInt32BaseSign.constprop.0.isra.0
.LVL497:
	.loc 11 442 12 view .LVU2132
.LBE1777:
.LBE1779:
	.loc 8 246 5 is_stmt 1 view .LVU2133
	.loc 8 247 1 is_stmt 0 view .LVU2134
	movs	r0, #1
	pop	{r3, pc}
	.cfi_endproc
.LFE325:
	.size	SCPI_CoreEseQ, .-SCPI_CoreEseQ
	.section	.text.SCPI_CoreOpcQ,"ax",%progbits
	.align	1
	.p2align 2,,3
	.syntax unified
	.thumb
	.thumb_func
	.fpu fpv4-sp-d16
	.type	SCPI_CoreOpcQ, %function
SCPI_CoreOpcQ:
.LVL498:
.LFB326:
	.loc 8 298 47 is_stmt 1 view -0
	.cfi_startproc
	@ args = 0, pretend = 0, frame = 0
	@ frame_needed = 0, uses_anonymous_args = 0
	.loc 8 300 5 view .LVU2136
.LBB1782:
.LBI1782:
	.loc 11 441 8 view .LVU2137
.LBE1782:
	.loc 8 298 47 is_stmt 0 view .LVU2138
	push	{r3, lr}
	.cfi_def_cfa_offset 8
	.cfi_offset 3, -8
	.cfi_offset 14, -4
.LBB1784:
.LBB1783:
	.loc 11 442 12 view .LVU2139
	movs	r2, #1
	mov	r1, r2
	bl	resultUInt32BaseSign.constprop.0.isra.0
.LVL499:
	.loc 11 442 12 view .LVU2140
.LBE1783:
.LBE1784:
	.loc 8 301 5 is_stmt 1 view .LVU2141
	.loc 8 302 1 is_stmt 0 view .LVU2142
	movs	r0, #1
	pop	{r3, pc}
	.cfi_endproc
.LFE326:
	.size	SCPI_CoreOpcQ, .-SCPI_CoreOpcQ
	.section	.text.SCPI_CoreSreQ,"ax",%progbits
	.align	1
	.p2align 2,,3
	.syntax unified
	.thumb
	.thumb_func
	.fpu fpv4-sp-d16
	.type	SCPI_CoreSreQ, %function
SCPI_CoreSreQ:
.LVL500:
.LFB327:
	.loc 8 335 47 is_stmt 1 view -0
	.cfi_startproc
	@ args = 0, pretend = 0, frame = 0
	@ frame_needed = 0, uses_anonymous_args = 0
	.loc 8 336 5 view .LVU2144
.LBB1789:
.LBI1789:
	.loc 8 85 16 view .LVU2145
.LBB1790:
	.loc 8 86 5 view .LVU2146
.LBE1790:
.LBE1789:
	.loc 8 335 47 is_stmt 0 view .LVU2147
	push	{r3, lr}
	.cfi_def_cfa_offset 8
	.cfi_offset 3, -8
	.cfi_offset 14, -4
.LBB1793:
.LBB1791:
	.loc 8 86 33 view .LVU2148
	cbz	r0, .L577
	.loc 8 87 9 is_stmt 1 view .LVU2149
.LBE1791:
.LBE1793:
.LBB1794:
.LBB1795:
	.loc 11 442 12 is_stmt 0 view .LVU2150
	ldrh	r1, [r0, #74]
.LVL501:
	.loc 11 442 12 view .LVU2151
.LBE1795:
.LBI1794:
	.loc 11 441 8 is_stmt 1 view .LVU2152
.LBB1796:
	.loc 11 442 12 is_stmt 0 view .LVU2153
	movs	r2, #1
	bl	resultUInt32BaseSign.constprop.0.isra.0
.LVL502:
	.loc 11 442 12 view .LVU2154
.LBE1796:
.LBE1794:
	.loc 8 337 5 is_stmt 1 view .LVU2155
	.loc 8 338 1 is_stmt 0 view .LVU2156
	movs	r0, #1
	pop	{r3, pc}
.LVL503:
.L577:
.LBB1798:
.LBB1792:
	.loc 8 338 1 view .LVU2157
	mov	r1, r0
.LVL504:
	.loc 8 338 1 view .LVU2158
.LBE1792:
.LBE1798:
.LBB1799:
	.loc 11 441 8 is_stmt 1 view .LVU2159
.LBB1797:
	.loc 11 442 12 is_stmt 0 view .LVU2160
	movs	r2, #1
	bl	resultUInt32BaseSign.constprop.0.isra.0
.LVL505:
	.loc 11 442 12 view .LVU2161
.LBE1797:
.LBE1799:
	.loc 8 337 5 is_stmt 1 view .LVU2162
	.loc 8 338 1 is_stmt 0 view .LVU2163
	movs	r0, #1
	pop	{r3, pc}
	.cfi_endproc
.LFE327:
	.size	SCPI_CoreSreQ, .-SCPI_CoreSreQ
	.section	.text.SCPI_CoreStbQ,"ax",%progbits
	.align	1
	.p2align 2,,3
	.syntax unified
	.thumb
	.thumb_func
	.fpu fpv4-sp-d16
	.type	SCPI_CoreStbQ, %function
SCPI_CoreStbQ:
.LVL506:
.LFB328:
	.loc 8 345 47 is_stmt 1 view -0
	.cfi_startproc
	@ args = 0, pretend = 0, frame = 0
	@ frame_needed = 0, uses_anonymous_args = 0
	.loc 8 346 5 view .LVU2165
.LBB1804:
.LBI1804:
	.loc 8 85 16 view .LVU2166
.LBB1805:
	.loc 8 86 5 view .LVU2167
.LBE1805:
.LBE1804:
	.loc 8 345 47 is_stmt 0 view .LVU2168
	push	{r3, lr}
	.cfi_def_cfa_offset 8
	.cfi_offset 3, -8
	.cfi_offset 14, -4
.LBB1808:
.LBB1806:
	.loc 8 86 33 view .LVU2169
	cbz	r0, .L581
	.loc 8 87 9 is_stmt 1 view .LVU2170
.LBE1806:
.LBE1808:
.LBB1809:
.LBB1810:
	.loc 11 442 12 is_stmt 0 view .LVU2171
	ldrh	r1, [r0, #72]
.LVL507:
	.loc 11 442 12 view .LVU2172
.LBE1810:
.LBI1809:
	.loc 11 441 8 is_stmt 1 view .LVU2173
.LBB1811:
	.loc 11 442 12 is_stmt 0 view .LVU2174
	movs	r2, #1
	bl	resultUInt32BaseSign.constprop.0.isra.0
.LVL508:
	.loc 11 442 12 view .LVU2175
.LBE1811:
.LBE1809:
	.loc 8 347 5 is_stmt 1 view .LVU2176
	.loc 8 348 1 is_stmt 0 view .LVU2177
	movs	r0, #1
	pop	{r3, pc}
.LVL509:
.L581:
.LBB1813:
.LBB1807:
	.loc 8 348 1 view .LVU2178
	mov	r1, r0
.LVL510:
	.loc 8 348 1 view .LVU2179
.LBE1807:
.LBE1813:
.LBB1814:
	.loc 11 441 8 is_stmt 1 view .LVU2180
.LBB1812:
	.loc 11 442 12 is_stmt 0 view .LVU2181
	movs	r2, #1
	bl	resultUInt32BaseSign.constprop.0.isra.0
.LVL511:
	.loc 11 442 12 view .LVU2182
.LBE1812:
.LBE1814:
	.loc 8 347 5 is_stmt 1 view .LVU2183
	.loc 8 348 1 is_stmt 0 view .LVU2184
	movs	r0, #1
	pop	{r3, pc}
	.cfi_endproc
.LFE328:
	.size	SCPI_CoreStbQ, .-SCPI_CoreStbQ
	.section	.text.SCPI_SystemErrorCountQ,"ax",%progbits
	.align	1
	.p2align 2,,3
	.syntax unified
	.thumb
	.thumb_func
	.fpu fpv4-sp-d16
	.type	SCPI_SystemErrorCountQ, %function
SCPI_SystemErrorCountQ:
.LVL512:
.LFB329:
	.loc 12 96 56 is_stmt 1 view -0
	.cfi_startproc
	@ args = 0, pretend = 0, frame = 0
	@ frame_needed = 0, uses_anonymous_args = 0
	.loc 12 97 5 view .LVU2186
.LBB1821:
.LBI1821:
	.loc 7 123 9 view .LVU2187
.LBB1822:
	.loc 7 124 5 view .LVU2188
	.loc 7 126 5 view .LVU2189
	.loc 7 128 5 view .LVU2190
	.loc 7 128 5 is_stmt 0 view .LVU2191
.LBE1822:
.LBE1821:
.LBB1823:
.LBI1823:
	.loc 11 441 8 is_stmt 1 view .LVU2192
.LBE1823:
	.loc 12 96 56 is_stmt 0 view .LVU2193
	push	{r3, lr}
	.cfi_def_cfa_offset 8
	.cfi_offset 3, -8
	.cfi_offset 14, -4
.LBB1825:
.LBB1824:
	.loc 11 442 12 view .LVU2194
	movs	r2, #1
	ldrsh	r1, [r0, #64]
	bl	resultUInt32BaseSign.constprop.0.isra.0
.LVL513:
	.loc 11 442 12 view .LVU2195
.LBE1824:
.LBE1825:
	.loc 12 99 5 is_stmt 1 view .LVU2196
	.loc 12 100 1 is_stmt 0 view .LVU2197
	movs	r0, #1
	pop	{r3, pc}
	.cfi_endproc
.LFE329:
	.size	SCPI_SystemErrorCountQ, .-SCPI_SystemErrorCountQ
	.section	.text.usbd_edpt_xfer.isra.0,"ax",%progbits
	.align	1
	.p2align 2,,3
	.syntax unified
	.thumb
	.thumb_func
	.fpu fpv4-sp-d16
	.type	usbd_edpt_xfer.isra.0, %function
usbd_edpt_xfer.isra.0:
.LVL514:
.LFB13:
	.file 23 "/Users/margaret/Github/tinylogicfriend/lib/tinyusb/src/device/usbd.c"
	.loc 23 1215 6 is_stmt 1 view -0
	.cfi_startproc
	@ args = 0, pretend = 0, frame = 0
	@ frame_needed = 0, uses_anonymous_args = 0
	@ link register save eliminated.
	.loc 23 1223 3 view .LVU2199
	ldr	r3, .L593
	.loc 23 1215 6 view .LVU2200
	push	{r4, r5}
	.cfi_def_cfa_offset 8
	.cfi_offset 4, -8
	.cfi_offset 5, -4
.LBB1842:
.LBB1843:
	.file 24 "/Users/margaret/Github/tinylogicfriend/lib/tinyusb/src/common/tusb_types.h"
	.loc 24 465 10 view .LVU2201
	and	r4, r0, #127
.LVL515:
	.loc 24 465 10 is_stmt 0 view .LVU2202
.LBE1843:
.LBE1842:
	.loc 23 1223 3 is_stmt 1 view .LVU2203
	add	r3, r3, r4, lsl #1
.LBB1844:
.LBB1845:
	.loc 24 459 50 view .LVU2204
	lsrs	r5, r0, #7
.LVL516:
	.loc 24 459 50 is_stmt 0 view .LVU2205
.LBE1845:
.LBE1844:
	.loc 23 1223 3 is_stmt 1 view .LVU2206
	add	r0, r3, r0, lsr #7
.LVL517:
	.loc 23 1223 3 is_stmt 0 view .LVU2207
	adds	r0, r0, #32
	ldrb	ip, [r0, #5]	@ zero_extendqisi2
	tst	ip, #1
	beq	.L586
.LVL518:
.LBB1846:
	.loc 23 1223 3 view .LVU2208
	mov	r3, #-536813568
	ldr	r0, [r3, #3568]
	ands	r0, r0, #1
	beq	.L587
	.syntax unified
@ 1223 "/Users/margaret/Github/tinylogicfriend/lib/tinyusb/src/device/usbd.c" 1
	BKPT #0

@ 0 "" 2
	.thumb
	.syntax unified
.LBE1846:
	movs	r0, #0
.L587:
	.loc 23 1242 1 is_stmt 1 view .LVU2209
	pop	{r4, r5}
	.cfi_remember_state
	.cfi_restore 5
	.cfi_restore 4
	.cfi_def_cfa_offset 0
.LVL519:
	.loc 23 1242 1 is_stmt 0 view .LVU2210
	bx	lr
.LVL520:
.L586:
	.cfi_restore_state
	.loc 23 1242 1 view .LVU2211
	lsls	r3, r4, #1
.LBB1847:
.LBB1848:
	.file 25 "/Users/margaret/Github/tinylogicfriend/lib/tinyusb/src/portable/microchip/samd/dcd_samd.c"
	.loc 25 251 18 is_stmt 1 view .LVU2212
	add	r3, r3, r5
	lsl	ip, r3, #4
.LBE1848:
.LBE1847:
	.loc 23 1227 40 view .LVU2213
	ldrb	r3, [r0, #5]	@ zero_extendqisi2
	orr	r3, r3, #1
	strb	r3, [r0, #5]
.LVL521:
.LBB1856:
.LBB1853:
	.loc 25 251 18 view .LVU2214
	ldr	r3, .L593+4
	str	r1, [r3, ip]
	.loc 25 249 27 view .LVU2215
	lsl	ip, r4, #5
	.loc 25 249 22 view .LVU2216
	add	ip, ip, #1090519040
	add	ip, ip, #256
.LVL522:
	.loc 25 256 6 view .LVU2217
	cbnz	r4, .L588
	.loc 25 256 21 view .LVU2218
	cbz	r1, .L592
.LVL523:
.L588:
	.loc 25 262 41 view .LVU2219
	add	r3, r3, r4, lsl #5
	.loc 25 260 6 view .LVU2220
	cbnz	r5, .L589
	.loc 25 262 41 view .LVU2221
	ldr	r1, [r3, #4]
	bfi	r1, r2, #14, #14
	str	r1, [r3, #4]
	.loc 25 263 34 view .LVU2222
	ldr	r2, [r3, #4]
.LVL524:
	.loc 25 263 34 is_stmt 0 view .LVU2223
	bfi	r2, r5, #0, #14
	str	r2, [r3, #4]
	.loc 25 264 25 is_stmt 1 view .LVU2224
	ldrb	r3, [ip, #4]	@ zero_extendqisi2
	orr	r3, r3, #64
	strb	r3, [ip, #4]
	.loc 25 265 23 view .LVU2225
	ldrb	r3, [ip, #7]	@ zero_extendqisi2
	orr	r3, r3, #4
	strb	r3, [ip, #7]
.LVL525:
	.loc 25 265 23 is_stmt 0 view .LVU2226
.LBE1853:
.LBE1856:
	.loc 23 1232 12 is_stmt 1 view .LVU2227
	movs	r0, #1
	.loc 23 1242 1 view .LVU2228
	pop	{r4, r5}
	.cfi_remember_state
	.cfi_restore 5
	.cfi_restore 4
	.cfi_def_cfa_offset 0
.LVL526:
	.loc 23 1242 1 is_stmt 0 view .LVU2229
	bx	lr
.LVL527:
.L589:
	.cfi_restore_state
.LBB1857:
.LBB1854:
	.loc 25 268 41 is_stmt 1 view .LVU2230
	ldr	r1, [r3, #20]
	bfc	r1, #14, #14
	str	r1, [r3, #20]
	.loc 25 269 34 view .LVU2231
	ldr	r1, [r3, #20]
	bfi	r1, r2, #0, #14
	str	r1, [r3, #20]
	.loc 25 270 25 view .LVU2232
	ldrb	r3, [ip, #5]	@ zero_extendqisi2
	orr	r3, r3, #128
	strb	r3, [ip, #5]
	.loc 25 271 23 view .LVU2233
	ldrb	r3, [ip, #7]	@ zero_extendqisi2
	orr	r3, r3, #8
	strb	r3, [ip, #7]
.LVL528:
	.loc 25 271 23 is_stmt 0 view .LVU2234
.LBE1854:
.LBE1857:
	.loc 23 1232 12 is_stmt 1 view .LVU2235
	movs	r0, #1
	.loc 23 1242 1 view .LVU2236
	pop	{r4, r5}
	.cfi_remember_state
	.cfi_restore 5
	.cfi_restore 4
	.cfi_def_cfa_offset 0
.LVL529:
	.loc 23 1242 1 is_stmt 0 view .LVU2237
	bx	lr
.LVL530:
.L592:
	.cfi_restore_state
.LBB1858:
.LBB1855:
	.loc 25 256 41 is_stmt 1 view .LVU2238
	cmp	r2, #0
	bne	.L588
	.loc 25 256 74 view .LVU2239
	ldr	r1, .L593+8
.LVL531:
.LBB1849:
.LBB1850:
	.loc 24 459 50 view .LVU2240
	ldrb	r0, [r1]	@ zero_extendqisi2
.LBE1850:
.LBE1849:
	.loc 25 256 63 view .LVU2241
	cmp	r5, r0, lsr #7
	beq	.L588
.LBB1851:
.LBB1852:
	.loc 25 55 33 view .LVU2242
	str	r1, [r3]
.LVL532:
	.loc 25 56 54 view .LVU2243
	ldr	r1, [r3, #4]
	movs	r0, #8
	bfi	r1, r0, #14, #14
	str	r1, [r3, #4]
	.loc 25 57 47 view .LVU2244
	ldr	r1, [r3, #4]
.LVL533:
	.loc 25 57 47 is_stmt 0 view .LVU2245
	bfi	r1, r2, #0, #14
	str	r1, [r3, #4]
	.loc 25 58 1 is_stmt 1 view .LVU2246
	b	.L588
.L594:
	.align	2
.L593:
	.word	.LANCHOR14
	.word	.LANCHOR15
	.word	.LANCHOR16
.LBE1852:
.LBE1851:
.LBE1855:
.LBE1858:
	.cfi_endproc
.LFE13:
	.size	usbd_edpt_xfer.isra.0, .-usbd_edpt_xfer.isra.0
	.section	.text.tud_usbtmc_start_bus_read.isra.0,"ax",%progbits
	.align	1
	.p2align 2,,3
	.syntax unified
	.thumb
	.thumb_func
	.fpu fpv4-sp-d16
	.type	tud_usbtmc_start_bus_read.isra.0, %function
tud_usbtmc_start_bus_read.isra.0:
.LFB21:
	.loc 13 352 6 view -0
	.cfi_startproc
	@ args = 0, pretend = 0, frame = 0
	@ frame_needed = 0, uses_anonymous_args = 0
	@ link register save eliminated.
	.loc 13 354 22 view .LVU2248
	ldr	r0, .L609
	ldrb	r3, [r0]	@ zero_extendqisi2
	.loc 13 355 3 view .LVU2249
	cmp	r3, #3
	.loc 13 354 22 view .LVU2250
	uxtb	r1, r3
.LVL534:
	.loc 13 355 3 view .LVU2251
	beq	.L596
	cmp	r1, #10
	beq	.L597
	cmp	r1, #1
	beq	.L597
	.loc 13 370 1 view .LVU2252
	bx	lr
.LVL535:
.L600:
.LBB1869:
.LBB1870:
	.loc 13 180 24 view .LVU2253
	movs	r3, #2
.LVL536:
	.loc 13 180 24 is_stmt 0 view .LVU2254
	strb	r3, [r0]
.LVL537:
.LBB1871:
.LBB1872:
.LBB1873:
	.loc 14 58 10 is_stmt 1 view .LVU2255
	ldrh	r3, [r2]
	.loc 14 58 17 view .LVU2256
	adds	r3, r3, #1
	uxth	r3, r3
	strh	r3, [r2]	@ movhi
.LVL538:
.L596:
	.loc 14 58 17 is_stmt 0 view .LVU2257
.LBE1873:
.LBE1872:
.LBE1871:
.LBE1870:
.LBE1869:
.LBB1881:
.LBB1882:
	.loc 13 368 3 is_stmt 1 view .LVU2258
	ldr	r1, .L609+4
.LVL539:
	.loc 13 368 3 is_stmt 0 view .LVU2259
	ldrb	r0, [r0, #4]	@ zero_extendqisi2
	movs	r2, #64
	b	usbd_edpt_xfer.isra.0
.LVL540:
.L597:
	.loc 13 368 3 view .LVU2260
.LBE1882:
.LBE1881:
.LBB1883:
.LBB1880:
	.loc 13 176 3 is_stmt 1 view .LVU2261
	ldr	r3, .L609+8
	ldr	r2, [r3]
.LVL541:
.L599:
.LBB1876:
.LBB1877:
.LBB1878:
	.loc 14 67 17 view .LVU2262
	ldrh	r3, [r2]
	uxth	r3, r3
	.loc 14 67 9 view .LVU2263
	cmp	r3, #0
	beq	.L599
	.loc 14 68 10 view .LVU2264
	ldrh	r3, [r2]
	.loc 14 68 17 view .LVU2265
	subs	r3, r3, #1
	uxth	r3, r3
	strh	r3, [r2]	@ movhi
.LVL542:
	.loc 14 68 17 is_stmt 0 view .LVU2266
.LBE1878:
.LBE1877:
.LBE1876:
	.loc 13 177 22 is_stmt 1 view .LVU2267
	ldrb	r3, [r0]	@ zero_extendqisi2
.LVL543:
	.loc 13 178 6 view .LVU2268
	cmp	r1, r3
	beq	.L600
.LVL544:
.LBB1879:
.LBB1875:
.LBB1874:
	.loc 14 58 10 view .LVU2269
	ldrh	r3, [r2]
.LVL545:
	.loc 14 58 17 view .LVU2270
	adds	r3, r3, #1
	uxth	r3, r3
	strh	r3, [r2]	@ movhi
.LVL546:
	.loc 14 58 17 is_stmt 0 view .LVU2271
	bx	lr
.L610:
	.align	2
.L609:
	.word	.LANCHOR4
	.word	.LANCHOR4+72
	.word	.LANCHOR7
.LBE1874:
.LBE1875:
.LBE1879:
.LBE1880:
.LBE1883:
	.cfi_endproc
.LFE21:
	.size	tud_usbtmc_start_bus_read.isra.0, .-tud_usbtmc_start_bus_read.isra.0
	.section	.text.usbtmcd_open_cb,"ax",%progbits
	.align	1
	.p2align 2,,3
	.syntax unified
	.thumb
	.thumb_func
	.fpu fpv4-sp-d16
	.type	usbtmcd_open_cb, %function
usbtmcd_open_cb:
.LVL547:
.LFB332:
	.loc 13 263 1 is_stmt 1 view -0
	.cfi_startproc
	@ args = 0, pretend = 0, frame = 8
	@ frame_needed = 0, uses_anonymous_args = 0
	.loc 13 270 3 is_stmt 0 view .LVU2273
	ldrb	r3, [r1, #5]	@ zero_extendqisi2
	.loc 13 264 3 is_stmt 1 view .LVU2274
	.loc 13 266 3 view .LVU2275
	.loc 13 267 3 view .LVU2276
	.loc 13 268 3 view .LVU2277
.LVL548:
	.loc 13 270 3 view .LVU2278
	.loc 13 270 3 view .LVU2279
	cmp	r3, #254
	beq	.L612
.L715:
	movs	r0, #0
.LVL549:
	.loc 13 345 1 is_stmt 0 view .LVU2280
	bx	lr
.LVL550:
.L612:
	.loc 13 270 3 is_stmt 1 discriminator 2 view .LVU2281
	.loc 13 271 3 discriminator 2 view .LVU2282
	.loc 13 271 3 discriminator 2 view .LVU2283
	ldrb	r3, [r1, #6]	@ zero_extendqisi2
	cmp	r3, #3
	bne	.L715
	.loc 13 271 3 discriminator 2 view .LVU2284
	.loc 13 275 3 discriminator 2 view .LVU2285
	.loc 13 275 3 discriminator 2 view .LVU2286
	.loc 13 263 1 is_stmt 0 discriminator 2 view .LVU2287
	push	{r4, r5, r6, r7, r8, r9, r10, fp, lr}
	.cfi_def_cfa_offset 36
	.cfi_offset 4, -36
	.cfi_offset 5, -32
	.cfi_offset 6, -28
	.cfi_offset 7, -24
	.cfi_offset 8, -20
	.cfi_offset 9, -16
	.cfi_offset 10, -12
	.cfi_offset 11, -8
	.cfi_offset 14, -4
	.loc 13 275 3 discriminator 2 view .LVU2288
	ldrb	r6, [r1, #4]	@ zero_extendqisi2
	subs	r3, r6, #2
	cmp	r3, #1
	.loc 13 263 1 discriminator 2 view .LVU2289
	sub	sp, sp, #12
	.cfi_def_cfa_offset 48
	.loc 13 275 3 discriminator 2 view .LVU2290
	bhi	.L651
.LVL551:
.LBB1932:
.LBI1932:
	.loc 13 262 10 is_stmt 1 view .LVU2291
.LBB1933:
	.loc 13 275 3 view .LVU2292
	.loc 13 278 3 view .LVU2293
	.loc 13 278 3 view .LVU2294
	ldr	r5, .L741
	ldrb	r3, [r5]	@ zero_extendqisi2
	and	lr, r3, #255
	cbnz	r3, .L651
	.loc 13 278 3 view .LVU2295
	.loc 13 281 3 view .LVU2296
.LVL552:
	.loc 13 282 3 view .LVU2297
	.loc 13 284 3 view .LVU2298
	.loc 13 284 23 is_stmt 0 view .LVU2299
	ldrb	r3, [r1, #2]	@ zero_extendqisi2
	strb	r3, [r5, #1]
	.loc 13 285 3 is_stmt 1 view .LVU2300
	.loc 13 285 23 is_stmt 0 view .LVU2301
	strb	r0, [r5, #2]
	.loc 13 287 3 is_stmt 1 view .LVU2302
.LVL553:
	.loc 13 287 9 view .LVU2303
.LBB1934:
.LBB1935:
.LBB1936:
	.loc 23 1138 20 is_stmt 0 view .LVU2304
	ldr	r10, .L741+12
.LBE1936:
.LBE1935:
.LBE1934:
	.loc 13 285 23 view .LVU2305
	mov	r3, r1
	.loc 13 281 11 view .LVU2306
	mov	r0, lr
.LVL554:
.LBB1966:
.LBB1957:
.LBB1952:
.LBB1937:
.LBB1938:
	.loc 25 215 11 view .LVU2307
	mov	r8, #1
	.loc 25 222 24 view .LVU2308
	movw	fp, #1023
	b	.L640
.LVL555:
.L617:
	.loc 25 222 24 view .LVU2309
.LBE1938:
.LBE1937:
.LBE1952:
.LBE1957:
.LBE1966:
	.loc 13 317 5 is_stmt 1 view .LVU2310
.LBB1967:
.LBI1967:
	.loc 24 487 23 view .LVU2311
.LBB1968:
	.loc 24 489 3 view .LVU2312
	.loc 24 489 33 is_stmt 0 view .LVU2313
	ldrb	r4, [r3]	@ zero_extendqisi2
.LVL556:
	.loc 24 489 33 view .LVU2314
.LBE1968:
.LBE1967:
	.loc 13 287 9 view .LVU2315
	cmp	r6, lr
	.loc 13 317 13 view .LVU2316
	add	r0, r0, r4
.LVL557:
.LBB1969:
.LBB1970:
	.loc 24 479 16 view .LVU2317
	add	r3, r3, r4
.LVL558:
	.loc 24 479 16 view .LVU2318
.LBE1970:
.LBE1969:
	.loc 13 317 13 view .LVU2319
	uxth	r0, r0
.LVL559:
	.loc 13 318 5 is_stmt 1 view .LVU2320
.LBB1972:
.LBI1969:
	.loc 24 476 31 view .LVU2321
.LBB1971:
	.loc 24 478 3 view .LVU2322
	.loc 24 479 3 view .LVU2323
	.loc 24 479 3 is_stmt 0 view .LVU2324
.LBE1971:
.LBE1972:
	.loc 13 287 9 is_stmt 1 view .LVU2325
	bls	.L639
.LVL560:
	.loc 13 287 52 is_stmt 0 view .LVU2326
	cmp	r2, r0
	bcc	.L639
.LVL561:
.L640:
	.loc 13 289 5 is_stmt 1 view .LVU2327
	.loc 13 289 8 is_stmt 0 view .LVU2328
	ldrb	r4, [r3, #1]	@ zero_extendqisi2
	cmp	r4, #5
	bne	.L617
.LBB1973:
	.loc 13 291 7 is_stmt 1 view .LVU2329
.LVL562:
	.loc 13 292 7 view .LVU2330
	.loc 13 292 35 is_stmt 0 view .LVU2331
	ldrb	r4, [r3, #3]	@ zero_extendqisi2
	and	r4, r4, #3
	.loc 13 292 7 view .LVU2332
	cmp	r4, #2
	beq	.L618
	cmp	r4, #3
	bne	.L651
	.loc 13 305 11 is_stmt 1 view .LVU2333
	.loc 13 305 11 view .LVU2334
	ldrb	r4, [r3, #2]	@ zero_extendqisi2
.LVL563:
.LBB1958:
.LBI1958:
	.loc 24 457 26 view .LVU2335
.LBB1959:
	.loc 24 459 3 view .LVU2336
	.loc 24 459 3 is_stmt 0 view .LVU2337
.LBE1959:
.LBE1958:
	.loc 13 305 11 view .LVU2338
	lsrs	r6, r4, #7
	beq	.L651
	.loc 13 305 11 is_stmt 1 view .LVU2339
	.loc 13 306 11 view .LVU2340
	.loc 13 306 11 view .LVU2341
	ldrb	r6, [r5, #5]	@ zero_extendqisi2
	cbnz	r6, .L651
	.loc 13 306 11 view .LVU2342
	.loc 13 308 11 view .LVU2343
	.loc 13 308 34 is_stmt 0 view .LVU2344
	strb	r4, [r5, #5]
	.loc 13 309 11 is_stmt 1 view .LVU2345
.L623:
	.loc 13 311 11 view .LVU2346
	.loc 13 313 7 view .LVU2347
	.loc 13 313 7 view .LVU2348
.LVL564:
.LBB1960:
.LBI1935:
	.loc 23 1124 6 view .LVU2349
.LBB1953:
	.loc 23 1128 32 is_stmt 0 view .LVU2350
	ldrb	r4, [r3, #3]	@ zero_extendqisi2
	and	r4, r4, #3
	.loc 23 1128 3 view .LVU2351
	cmp	r4, #2
	beq	.L626
	cmp	r4, #3
	beq	.L627
	cmp	r4, #1
	beq	.L737
.LVL565:
.L651:
	.loc 23 1128 3 view .LVU2352
.LBE1953:
.LBE1960:
.LBE1973:
	.loc 13 337 5 is_stmt 1 view .LVU2353
	.loc 13 337 5 view .LVU2354
	.loc 13 337 5 view .LVU2355
	.loc 13 337 5 view .LVU2356
.LBB1974:
	.loc 13 337 5 view .LVU2357
	.loc 13 337 5 view .LVU2358
	mov	r3, #-536813568
	ldr	r3, [r3, #3568]
	lsls	r1, r3, #31
.LVL566:
	.loc 13 337 5 is_stmt 0 view .LVU2359
	bmi	.L720
.LVL567:
.L721:
	.loc 13 337 5 view .LVU2360
.LBE1974:
	movs	r0, #0
.L711:
.LBE1933:
.LBE1932:
	.loc 13 345 1 view .LVU2361
	add	sp, sp, #12
	.cfi_remember_state
	.cfi_def_cfa_offset 36
	@ sp needed
	pop	{r4, r5, r6, r7, r8, r9, r10, fp, pc}
.LVL568:
.L740:
	.cfi_restore_state
.LBB1998:
.LBB1995:
	.loc 13 331 5 is_stmt 1 view .LVU2362
	.loc 13 331 5 view .LVU2363
	ldrb	r3, [r5, #5]	@ zero_extendqisi2
	cmp	r3, #0
	bne	.L646
.L728:
	.loc 13 331 5 view .LVU2364
	.loc 13 331 5 view .LVU2365
	.loc 13 331 5 view .LVU2366
	.loc 13 331 5 view .LVU2367
.LBB1975:
	.loc 13 331 5 view .LVU2368
.LVL569:
	.loc 13 331 5 view .LVU2369
	mov	r2, #-536813568
.LVL570:
	.loc 13 331 5 is_stmt 0 view .LVU2370
	ldr	r2, [r2, #3568]
	lsls	r7, r2, #31
	bpl	.L721
.LVL571:
.L720:
	.loc 13 331 5 view .LVU2371
.LBE1975:
.LBB1976:
	.loc 13 337 5 is_stmt 1 view .LVU2372
	.syntax unified
@ 337 "/Users/margaret/Github/tinylogicfriend/lib/tinyusb/src/class/usbtmc/usbtmc_device.c" 1
	BKPT #0

@ 0 "" 2
	.thumb
	.syntax unified
	b	.L721
.LVL572:
.L618:
	.loc 13 337 5 is_stmt 0 view .LVU2373
.LBE1976:
.LBB1977:
	.loc 13 294 11 is_stmt 1 view .LVU2374
	.loc 13 294 11 view .LVU2375
	ldrb	r4, [r3, #5]	@ zero_extendqisi2
	and	r6, r4, #7
	ldrb	r4, [r3, #4]	@ zero_extendqisi2
	orr	r4, r4, r6, lsl #8
	cmp	r4, #64
	bne	.L651
	.loc 13 294 11 view .LVU2376
	.loc 13 295 11 view .LVU2377
	.loc 13 295 15 is_stmt 0 view .LVU2378
	ldrb	r4, [r3, #2]	@ zero_extendqisi2
.LVL573:
.LBB1961:
.LBI1961:
	.loc 24 457 26 is_stmt 1 view .LVU2379
.LBB1962:
	.loc 24 459 3 view .LVU2380
	.loc 24 459 3 is_stmt 0 view .LVU2381
.LBE1962:
.LBE1961:
	.loc 13 295 14 view .LVU2382
	lsrs	r6, r4, #7
	.loc 13 297 13 is_stmt 1 view .LVU2383
	.loc 13 297 37 is_stmt 0 view .LVU2384
	ite	ne
	strbne	r4, [r5, #3]
	.loc 13 299 13 is_stmt 1 view .LVU2385
	.loc 13 299 38 is_stmt 0 view .LVU2386
	strbeq	r4, [r5, #4]
	b	.L623
.LVL574:
.L737:
.LBB1963:
.LBB1954:
.LBB1946:
	.loc 23 1132 22 view .LVU2387
	ldrb	r4, [r10, #2]	@ zero_extendqisi2
	.loc 23 1133 7 view .LVU2388
	ldrb	r7, [r3, #5]	@ zero_extendqisi2
	.loc 23 1132 22 view .LVU2389
	cmp	r4, #2
	.loc 23 1133 7 view .LVU2390
	and	r4, r7, #7
	ldrb	r7, [r3, #4]	@ zero_extendqisi2
	orr	r7, r7, r4, lsl #8
	.loc 23 1132 22 view .LVU2391
	ite	eq
	moveq	r4, #1024
	movne	r4, fp
	.loc 23 1133 7 view .LVU2392
	cmp	r7, r4
	bgt	.L723
.L630:
.LVL575:
	.loc 23 1133 7 view .LVU2393
.LBE1946:
.LBB1947:
.LBI1937:
	.loc 25 205 6 is_stmt 1 view .LVU2394
.LBB1943:
	.loc 25 209 25 is_stmt 0 view .LVU2395
	ldrb	r9, [r3, #2]	@ zero_extendqisi2
.LVL576:
	.loc 25 213 12 view .LVU2396
	movs	r4, #0
.LBB1939:
.LBB1940:
	.loc 24 465 10 view .LVU2397
	and	ip, r9, #127
.LVL577:
	.loc 24 465 10 view .LVU2398
.LBE1940:
.LBE1939:
.LBB1941:
.LBB1942:
	.loc 24 459 50 view .LVU2399
	lsr	r9, r9, #7
.LVL578:
.L635:
	.loc 24 459 50 view .LVU2400
.LBE1942:
.LBE1941:
	.loc 25 215 11 view .LVU2401
	adds	r6, r4, #3
	lsl	r6, r8, r6
	.loc 25 215 8 view .LVU2402
	cmp	r7, r6
	beq	.L634
	.loc 25 218 15 view .LVU2403
	adds	r4, r4, #1
.LVL579:
	.loc 25 214 9 view .LVU2404
	cmp	r4, #7
	bne	.L635
	.loc 25 222 24 view .LVU2405
	cmp	r7, fp
	bne	.L651
.LVL580:
.L650:
	.loc 25 224 26 view .LVU2406
	ldr	r7, .L741+4
	add	r6, r9, ip, lsl #1
	add	r6, r7, r6, lsl #4
	.loc 25 226 27 view .LVU2407
	lsl	ip, ip, #5
.LVL581:
	.loc 25 224 26 view .LVU2408
	ldr	r7, [r6, #4]
	bfi	r7, r4, #28, #3
	str	r7, [r6, #4]
.LVL582:
	.loc 25 230 52 view .LVU2409
	ldrb	r6, [r3, #3]	@ zero_extendqisi2
	.loc 25 226 22 view .LVU2410
	add	ip, ip, #1090519040
	.loc 25 230 58 view .LVU2411
	and	r6, r6, #3
	.loc 25 230 27 view .LVU2412
	ldrb	r7, [ip, #256]	@ zero_extendqisi2
	.loc 25 226 22 view .LVU2413
	add	r4, ip, #256
.LVL583:
	.loc 25 230 58 view .LVU2414
	adds	r6, r6, #1
	.loc 25 228 6 view .LVU2415
	cmp	r9, #0
	bne	.L637
	.loc 25 230 27 view .LVU2416
	bfi	r7, r6, #0, #3
	strb	r7, [ip, #256]
	.loc 25 231 31 view .LVU2417
	ldrb	r6, [r4, #9]	@ zero_extendqisi2
	orr	r6, r6, #1
	strb	r6, [r4, #9]
.LVL584:
.L638:
	.loc 25 231 31 view .LVU2418
.LBE1943:
.LBE1947:
.LBE1954:
.LBE1963:
	.loc 13 313 7 is_stmt 1 view .LVU2419
	.loc 13 314 7 view .LVU2420
	.loc 13 314 22 is_stmt 0 view .LVU2421
	add	lr, lr, #1
.LVL585:
	.loc 13 314 22 view .LVU2422
	ldrb	r6, [r1, #4]	@ zero_extendqisi2
	uxtb	lr, lr
.LVL586:
	.loc 13 314 22 view .LVU2423
	b	.L617
.LVL587:
.L627:
.LBB1964:
.LBB1955:
.LBB1948:
	.loc 23 1151 22 view .LVU2424
	ldrb	r4, [r10, #2]	@ zero_extendqisi2
	.loc 23 1152 7 view .LVU2425
	ldrb	r7, [r3, #5]	@ zero_extendqisi2
	.loc 23 1151 22 view .LVU2426
	cmp	r4, #2
	.loc 23 1152 7 view .LVU2427
	and	r4, r7, #7
	ldrb	r7, [r3, #4]	@ zero_extendqisi2
	orr	r7, r7, r4, lsl #8
	.loc 23 1151 22 view .LVU2428
	ite	eq
	moveq	r4, #1024
	movne	r4, #64
	.loc 23 1152 7 view .LVU2429
	cmp	r4, r7
	bge	.L630
.L723:
.LVL588:
.LBB1949:
	.loc 23 1152 7 view .LVU2430
	mov	r3, #-536813568
.LVL589:
	.loc 23 1152 7 view .LVU2431
	ldr	r3, [r3, #3568]
	lsls	r3, r3, #31
	bpl	.L651
	.syntax unified
@ 1152 "/Users/margaret/Github/tinylogicfriend/lib/tinyusb/src/device/usbd.c" 1
	BKPT #0

@ 0 "" 2
	.loc 23 1152 7 view .LVU2432
	.thumb
	.syntax unified
	b	.L651
.LVL590:
.L626:
	.loc 23 1152 7 view .LVU2433
.LBE1949:
.LBE1948:
	.loc 23 1138 10 view .LVU2434
	ldrb	r4, [r10, #2]	@ zero_extendqisi2
	cmp	r4, #2
	beq	.L738
	.loc 23 1145 9 view .LVU2435
	ldrb	r7, [r3, #5]	@ zero_extendqisi2
	and	r4, r7, #7
	ldrb	r7, [r3, #4]	@ zero_extendqisi2
	orr	r7, r7, r4, lsl #8
	cmp	r7, #64
	bls	.L630
	b	.L723
.LVL591:
.L637:
.LBB1950:
.LBB1944:
	.loc 25 234 27 view .LVU2436
	bfi	r7, r6, #4, #3
	strb	r7, [ip, #256]
	.loc 25 235 31 view .LVU2437
	ldrb	r6, [r4, #9]	@ zero_extendqisi2
	orr	r6, r6, #2
	strb	r6, [r4, #9]
.LVL592:
	.loc 25 235 31 view .LVU2438
	b	.L638
.LVL593:
.L639:
	.loc 25 235 31 view .LVU2439
.LBE1944:
.LBE1950:
.LBE1955:
.LBE1964:
.LBE1977:
	.loc 13 323 3 is_stmt 1 view .LVU2440
	.loc 13 323 3 view .LVU2441
	ldrb	r3, [r5, #3]	@ zero_extendqisi2
.LVL594:
	.loc 13 323 3 is_stmt 0 view .LVU2442
	cmp	r3, #0
	beq	.L728
	.loc 13 323 3 is_stmt 1 view .LVU2443
	.loc 13 324 3 view .LVU2444
	.loc 13 324 3 view .LVU2445
	ldrb	r3, [r5, #4]	@ zero_extendqisi2
	cmp	r3, #0
	beq	.L728
	.loc 13 324 3 view .LVU2446
	.loc 13 325 3 view .LVU2447
	.loc 13 325 6 is_stmt 0 view .LVU2448
	cmp	r6, #2
	beq	.L739
	.loc 13 329 8 is_stmt 1 view .LVU2449
	.loc 13 329 11 is_stmt 0 view .LVU2450
	cmp	r6, #3
	beq	.L740
	.loc 13 331 5 is_stmt 1 view .LVU2451
	.loc 13 334 3 view .LVU2452
	.loc 13 334 18 is_stmt 0 view .LVU2453
	ldr	r3, [r5, #152]
	.loc 13 334 6 view .LVU2454
	ldrb	r2, [r3, #14]	@ zero_extendqisi2
.LVL595:
	.loc 13 334 5 view .LVU2455
	lsls	r6, r2, #31
	bmi	.L647
	.loc 13 334 64 view .LVU2456
	ldrb	r3, [r3, #15]	@ zero_extendqisi2
	lsls	r4, r3, #30
	bpl	.L646
.L647:
	.loc 13 337 5 is_stmt 1 view .LVU2457
	.loc 13 337 5 view .LVU2458
	ldrb	r3, [r5, #5]	@ zero_extendqisi2
	cmp	r3, #0
	beq	.L651
.L646:
	.loc 13 337 5 view .LVU2459
	.loc 13 341 3 view .LVU2460
.LVL596:
.LBB1978:
.LBI1978:
	.loc 13 173 6 view .LVU2461
.LBB1979:
	.loc 13 175 3 view .LVU2462
	.loc 13 176 3 view .LVU2463
	.loc 13 176 3 view .LVU2464
	ldr	r3, .L741+8
	ldr	r2, [r3]
.LVL597:
.LBB1980:
.LBI1980:
	.loc 14 91 20 view .LVU2465
.LBE1980:
.LBE1979:
.LBE1978:
.LBE1995:
.LBE1998:
	.loc 14 93 3 view .LVU2466
.LBB1999:
.LBB1996:
.LBB1990:
.LBB1988:
.LBB1983:
.LBB1981:
.LBI1981:
	.loc 14 63 20 view .LVU2467
.LBB1982:
	.loc 14 65 3 view .LVU2468
	.loc 14 67 3 view .LVU2469
.L648:
	.loc 14 67 33 view .LVU2470
	.loc 14 67 9 view .LVU2471
	.loc 14 67 17 is_stmt 0 view .LVU2472
	ldrh	r3, [r2]
	uxth	r3, r3
	.loc 14 67 9 view .LVU2473
	cmp	r3, #0
	beq	.L648
	.loc 14 68 3 is_stmt 1 view .LVU2474
	.loc 14 68 10 is_stmt 0 view .LVU2475
	ldrh	r3, [r2]
	.loc 14 68 17 view .LVU2476
	subs	r3, r3, #1
	uxth	r3, r3
	strh	r3, [r2]	@ movhi
	.loc 14 70 3 is_stmt 1 view .LVU2477
.LVL598:
	.loc 14 70 3 is_stmt 0 view .LVU2478
.LBE1982:
.LBE1981:
.LBE1983:
	.loc 13 176 3 is_stmt 1 view .LVU2479
	.loc 13 177 3 view .LVU2480
	.loc 13 177 22 is_stmt 0 view .LVU2481
	ldrb	r3, [r5]	@ zero_extendqisi2
.LVL599:
	.loc 13 178 3 is_stmt 1 view .LVU2482
	.loc 13 178 6 is_stmt 0 view .LVU2483
	cbnz	r3, .L649
	.loc 13 180 5 is_stmt 1 view .LVU2484
	.loc 13 180 24 is_stmt 0 view .LVU2485
	movs	r3, #1
.LVL600:
	.loc 13 180 24 view .LVU2486
	strb	r3, [r5]
.LVL601:
.L649:
	.loc 13 186 3 is_stmt 1 view .LVU2487
	.loc 13 186 3 view .LVU2488
.LBB1984:
.LBI1984:
	.loc 14 96 20 view .LVU2489
.LBE1984:
.LBE1988:
.LBE1990:
.LBE1996:
.LBE1999:
	.loc 14 98 3 view .LVU2490
.LBB2000:
.LBB1997:
.LBB1991:
.LBB1989:
.LBB1987:
.LBB1985:
.LBI1985:
	.loc 14 55 20 view .LVU2491
.LBB1986:
	.loc 14 57 3 view .LVU2492
	.loc 14 58 3 view .LVU2493
	.loc 14 58 10 is_stmt 0 view .LVU2494
	ldrh	r3, [r2]
	str	r0, [sp, #4]
	.loc 14 58 17 view .LVU2495
	adds	r3, r3, #1
	uxth	r3, r3
	strh	r3, [r2]	@ movhi
	.loc 14 59 3 is_stmt 1 view .LVU2496
.LVL602:
	.loc 14 59 3 is_stmt 0 view .LVU2497
.LBE1986:
.LBE1985:
.LBE1987:
	.loc 13 186 3 is_stmt 1 view .LVU2498
	.loc 13 187 3 view .LVU2499
	.loc 13 187 3 is_stmt 0 view .LVU2500
.LBE1989:
.LBE1991:
	.loc 13 342 3 is_stmt 1 view .LVU2501
.LBB1992:
.LBI1992:
	.loc 6 108 6 view .LVU2502
.LBB1993:
	.loc 6 111 3 is_stmt 0 view .LVU2503
	bl	tud_usbtmc_start_bus_read.isra.0
.LVL603:
	.loc 6 112 1 view .LVU2504
	ldr	r0, [sp, #4]
	b	.L711
.LVL604:
.L634:
	.loc 6 112 1 view .LVU2505
.LBE1993:
.LBE1992:
.LBB1994:
.LBB1965:
.LBB1956:
.LBB1951:
.LBB1945:
	.loc 25 224 26 view .LVU2506
	and	r4, r4, #7
.LVL605:
	.loc 25 224 26 view .LVU2507
	b	.L650
.LVL606:
.L738:
	.loc 25 224 26 view .LVU2508
.LBE1945:
.LBE1951:
	.loc 23 1141 9 view .LVU2509
	ldrb	r4, [r3, #5]	@ zero_extendqisi2
	ldrb	r7, [r3, #4]	@ zero_extendqisi2
	and	r4, r4, #7
	orr	r7, r7, r4, lsl #8
	cmp	r7, #512
	beq	.L630
	b	.L723
.LVL607:
.L739:
	.loc 23 1141 9 view .LVU2510
.LBE1956:
.LBE1965:
.LBE1994:
	.loc 13 327 5 is_stmt 1 view .LVU2511
	.loc 13 327 5 view .LVU2512
	ldrb	r3, [r5, #5]	@ zero_extendqisi2
	cmp	r3, #0
	bne	.L651
	.loc 13 331 5 view .LVU2513
	.loc 13 334 3 view .LVU2514
	.loc 13 334 18 is_stmt 0 view .LVU2515
	ldr	r3, [r5, #152]
	.loc 13 334 6 view .LVU2516
	ldrb	r2, [r3, #14]	@ zero_extendqisi2
.LVL608:
	.loc 13 334 5 view .LVU2517
	lsls	r2, r2, #31
	bmi	.L651
	.loc 13 334 64 view .LVU2518
	ldrb	r3, [r3, #15]	@ zero_extendqisi2
	lsls	r3, r3, #30
	bmi	.L651
	b	.L646
.L742:
	.align	2
.L741:
	.word	.LANCHOR4
	.word	.LANCHOR15
	.word	.LANCHOR7
	.word	.LANCHOR14
.LBE1997:
.LBE2000:
	.cfi_endproc
.LFE332:
	.size	usbtmcd_open_cb, .-usbtmcd_open_cb
	.section	.text.tusb_init.part.0.isra.0,"ax",%progbits
	.align	1
	.p2align 2,,3
	.syntax unified
	.thumb
	.thumb_func
	.fpu fpv4-sp-d16
	.type	tusb_init.part.0.isra.0, %function
tusb_init.part.0.isra.0:
.LFB11:
	.file 26 "/Users/margaret/Github/tinylogicfriend/lib/tinyusb/src/tusb.c"
	.loc 26 40 6 is_stmt 1 view -0
	.cfi_startproc
	@ args = 0, pretend = 0, frame = 0
	@ frame_needed = 0, uses_anonymous_args = 0
	@ link register save eliminated.
.LVL609:
.LBB2001:
	.loc 26 50 3 view .LVU2520
	mov	r3, #-536813568
	ldr	r3, [r3, #3568]
	lsls	r3, r3, #31
	bpl	.L743
	.syntax unified
@ 50 "/Users/margaret/Github/tinylogicfriend/lib/tinyusb/src/tusb.c" 1
	BKPT #0

@ 0 "" 2
	.thumb
	.syntax unified
.L743:
.LBE2001:
	.loc 26 56 1 view .LVU2521
	bx	lr
	.cfi_endproc
.LFE11:
	.size	tusb_init.part.0.isra.0, .-tusb_init.part.0.isra.0
	.section	.text.usbd_reset,"ax",%progbits
	.align	1
	.p2align 2,,3
	.syntax unified
	.thumb
	.thumb_func
	.fpu fpv4-sp-d16
	.type	usbd_reset, %function
usbd_reset:
.LVL610:
.LFB334:
	.loc 23 407 1 view -0
	.cfi_startproc
	@ args = 0, pretend = 0, frame = 0
	@ frame_needed = 0, uses_anonymous_args = 0
	.loc 23 408 3 view .LVU2523
	.loc 23 407 1 is_stmt 0 view .LVU2524
	push	{r3, r4, r5, r6, r7, r8, r9, lr}
	.cfi_def_cfa_offset 32
	.cfi_offset 3, -32
	.cfi_offset 4, -28
	.cfi_offset 5, -24
	.cfi_offset 6, -20
	.cfi_offset 7, -16
	.cfi_offset 8, -12
	.cfi_offset 9, -8
	.cfi_offset 14, -4
	.loc 23 408 3 view .LVU2525
	ldr	r3, .L761
.LBB2007:
.LBB2008:
	.file 27 "/Users/margaret/Github/tinylogicfriend/lib/tinyusb/src/device/usbd_control.c"
	.loc 27 143 3 view .LVU2526
	ldr	r4, .L761+4
.LBE2008:
.LBE2007:
.LBB2012:
	.loc 23 415 26 view .LVU2527
	ldr	r6, .L761+8
.LBB2013:
.LBB2014:
	ldr	r7, .L761+12
	.loc 23 228 45 view .LVU2528
	ldr	r8, .L761+20
.LBE2014:
.LBE2013:
.LBE2012:
	.loc 23 408 3 view .LVU2529
	movs	r2, #55
	movs	r1, #0
	.loc 23 407 1 view .LVU2530
	mov	r5, r0
	.loc 23 408 3 view .LVU2531
	mov	r0, r3
.LVL611:
	.loc 23 408 3 view .LVU2532
	bl	memset
.LVL612:
	mov	r3, r0
	.loc 23 410 3 is_stmt 1 view .LVU2533
.LBB2021:
.LBB2009:
	.loc 27 143 3 is_stmt 0 view .LVU2534
	movs	r0, #0
.LBE2009:
.LBE2021:
	.loc 23 410 3 view .LVU2535
	mov	r2, #-1
.LBB2022:
.LBB2010:
	.loc 27 143 3 view .LVU2536
	strd	r0, r0, [r4]
	strd	r0, r0, [r4, #8]
	str	r0, [r4, #16]
.LBE2010:
.LBE2022:
.LBB2023:
	.loc 23 415 26 view .LVU2537
	ldrb	r1, [r6]	@ zero_extendqisi2
	ldr	r4, .L761+16
.LBE2023:
	.loc 23 410 3 view .LVU2538
	str	r2, [r3, #3]	@ unaligned
	str	r2, [r3, #7]	@ unaligned
	str	r2, [r3, #11]	@ unaligned
	str	r2, [r3, #15]	@ unaligned
	.loc 23 411 3 is_stmt 1 view .LVU2539
	str	r2, [r3, #19]	@ unaligned
	str	r2, [r3, #23]	@ unaligned
	str	r2, [r3, #27]	@ unaligned
	str	r2, [r3, #31]	@ unaligned
	strh	r2, [r3, #35]	@ unaligned
	.loc 23 413 3 view .LVU2540
.LBB2024:
.LBI2007:
	.loc 27 141 6 view .LVU2541
.LBB2011:
	.loc 27 143 3 view .LVU2542
.LVL613:
	.loc 27 143 3 is_stmt 0 view .LVU2543
.LBE2011:
.LBE2024:
.LBB2025:
	.loc 23 415 24 is_stmt 1 view .LVU2544
	.loc 23 415 26 is_stmt 0 view .LVU2545
	mov	r9, r0
	mov	r3, r0
.LVL614:
.L753:
	.loc 23 415 26 view .LVU2546
	mov	r2, r3
	.loc 23 417 5 is_stmt 1 view .LVU2547
.LVL615:
.LBB2018:
.LBI2013:
	.loc 23 223 43 view .LVU2548
.LBB2015:
	.loc 23 226 3 view .LVU2549
	.loc 23 226 6 is_stmt 0 view .LVU2550
	cbz	r4, .L749
	.loc 23 228 5 is_stmt 1 view .LVU2551
	.loc 23 228 8 is_stmt 0 view .LVU2552
	cmp	r3, r1
	bcc	.L760
	.loc 23 229 5 is_stmt 1 view .LVU2553
	.loc 23 229 11 is_stmt 0 view .LVU2554
	subs	r2, r3, r1
	uxtb	r2, r2
.LVL616:
.L749:
	.loc 23 233 3 is_stmt 1 view .LVU2555
	.loc 23 233 6 is_stmt 0 view .LVU2556
	cbnz	r2, .L752
	mov	r3, r7
.LVL617:
.L751:
	.loc 23 233 6 view .LVU2557
.LBE2015:
.LBE2018:
	.loc 23 417 5 view .LVU2558
	mov	r0, r5
	blx	r3
.LVL618:
	.loc 23 415 48 is_stmt 1 view .LVU2559
	.loc 23 415 24 view .LVU2560
	.loc 23 415 3 is_stmt 0 view .LVU2561
	add	r9, r9, #1
.LVL619:
	.loc 23 415 26 view .LVU2562
	ldrb	r1, [r6]	@ zero_extendqisi2
	.loc 23 415 3 view .LVU2563
	uxtb	r3, r9
	cmp	r1, r3
	bcs	.L753
.LBE2025:
	.loc 23 419 1 view .LVU2564
	pop	{r3, r4, r5, r6, r7, r8, r9, pc}
.L760:
.LBB2026:
.LBB2019:
.LBB2016:
	.loc 23 228 38 is_stmt 1 view .LVU2565
.LBE2016:
.LBE2019:
	.loc 23 417 18 is_stmt 0 view .LVU2566
	ldr	r2, [r8]
	add	r3, r3, r3, lsl #1
	add	r3, r2, r3, lsl #3
	ldr	r3, [r3, #4]
.LBB2020:
.LBB2017:
	.loc 23 228 45 view .LVU2567
	b	.L751
.LVL620:
.L752:
	.loc 23 228 45 view .LVU2568
.LBE2017:
.LBE2020:
	.loc 23 417 18 view .LVU2569
	movs	r3, #0
	ldr	r3, [r3, #4]
	.inst	0xdeff
.L762:
	.align	2
.L761:
	.word	.LANCHOR14
	.word	.LANCHOR17
	.word	.LANCHOR18
	.word	usbtmcd_reset_cb
	.word	usbd_app_driver_get_cb
	.word	.LANCHOR19
.LBE2026:
	.cfi_endproc
.LFE334:
	.size	usbd_reset, .-usbd_reset
	.section	.text.usbtmcd_reset_cb,"ax",%progbits
	.align	1
	.p2align 2,,3
	.syntax unified
	.thumb
	.thumb_func
	.fpu fpv4-sp-d16
	.type	usbtmcd_reset_cb, %function
usbtmcd_reset_cb:
.LVL621:
.LFB336:
	.loc 13 373 1 is_stmt 1 view -0
	.cfi_startproc
	@ args = 0, pretend = 0, frame = 0
	@ frame_needed = 0, uses_anonymous_args = 0
	.loc 13 374 3 view .LVU2571
	.loc 13 375 3 view .LVU2572
.LBB2035:
.LBI2035:
	.loc 6 119 1 view .LVU2573
.LBE2035:
	.loc 6 121 3 view .LVU2574
	.loc 13 377 3 view .LVU2575
	.loc 13 377 3 view .LVU2576
	.loc 13 373 1 is_stmt 0 view .LVU2577
	push	{r3, r4, r5, lr}
	.cfi_def_cfa_offset 16
	.cfi_offset 3, -16
	.cfi_offset 4, -12
	.cfi_offset 5, -8
	.cfi_offset 14, -4
	.loc 13 377 3 view .LVU2578
	ldr	r3, .L768
	ldr	r4, [r3]
.LVL622:
.LBB2036:
.LBI2036:
	.loc 14 91 20 is_stmt 1 view .LVU2579
.LBE2036:
	.loc 14 93 3 view .LVU2580
.LBB2041:
.LBB2037:
.LBI2037:
	.loc 14 63 20 view .LVU2581
.LBB2038:
	.loc 14 65 3 view .LVU2582
	.loc 14 67 3 view .LVU2583
.L764:
	.loc 14 67 33 view .LVU2584
	.loc 14 67 9 view .LVU2585
	.loc 14 67 17 is_stmt 0 view .LVU2586
	ldrh	r3, [r4]
	uxth	r3, r3
	.loc 14 67 9 view .LVU2587
	cmp	r3, #0
	beq	.L764
	.loc 14 68 3 is_stmt 1 view .LVU2588
	.loc 14 68 10 is_stmt 0 view .LVU2589
	ldrh	r3, [r4]
.LBE2038:
.LBE2037:
.LBE2041:
	.loc 13 378 3 view .LVU2590
	ldr	r5, .L768+4
.LBB2042:
.LBB2040:
.LBB2039:
	.loc 14 68 17 view .LVU2591
	subs	r3, r3, #1
	uxth	r3, r3
	strh	r3, [r4]	@ movhi
	.loc 14 70 3 is_stmt 1 view .LVU2592
.LVL623:
	.loc 14 70 3 is_stmt 0 view .LVU2593
.LBE2039:
.LBE2040:
.LBE2042:
	.loc 13 377 3 is_stmt 1 view .LVU2594
	.loc 13 378 3 view .LVU2595
	movs	r2, #152
	movs	r1, #0
	mov	r0, r5
.LVL624:
	.loc 13 378 3 is_stmt 0 view .LVU2596
	bl	memset
.LVL625:
	.loc 13 379 3 is_stmt 1 view .LVU2597
	.loc 13 380 23 is_stmt 0 view .LVU2598
	movs	r3, #255
	.loc 13 379 29 view .LVU2599
	ldr	r2, .L768+8
	str	r2, [r5, #152]
	.loc 13 380 3 is_stmt 1 view .LVU2600
	.loc 13 380 23 is_stmt 0 view .LVU2601
	strb	r3, [r5, #1]
	.loc 13 381 3 is_stmt 1 view .LVU2602
	.loc 13 381 3 view .LVU2603
.LVL626:
.LBB2043:
.LBI2043:
	.loc 14 96 20 view .LVU2604
.LBE2043:
	.loc 14 98 3 view .LVU2605
.LBB2046:
.LBB2044:
.LBI2044:
	.loc 14 55 20 view .LVU2606
.LBB2045:
	.loc 14 57 3 view .LVU2607
	.loc 14 58 3 view .LVU2608
	.loc 14 58 10 is_stmt 0 view .LVU2609
	ldrh	r3, [r4]
	.loc 14 58 17 view .LVU2610
	adds	r3, r3, #1
	uxth	r3, r3
	strh	r3, [r4]	@ movhi
	.loc 14 59 3 is_stmt 1 view .LVU2611
.LVL627:
	.loc 14 59 3 is_stmt 0 view .LVU2612
.LBE2045:
.LBE2044:
.LBE2046:
	.loc 13 381 3 is_stmt 1 view .LVU2613
	.loc 13 382 1 is_stmt 0 view .LVU2614
	pop	{r3, r4, r5, pc}
.L769:
	.align	2
.L768:
	.word	.LANCHOR7
	.word	.LANCHOR4
	.word	.LANCHOR5
	.cfi_endproc
.LFE336:
	.size	usbtmcd_reset_cb, .-usbtmcd_reset_cb
	.section	.text.tud_usbtmc_transmit_dev_msg_data.constprop.0,"ax",%progbits
	.align	1
	.p2align 2,,3
	.syntax unified
	.thumb
	.thumb_func
	.fpu fpv4-sp-d16
	.type	tud_usbtmc_transmit_dev_msg_data.constprop.0, %function
tud_usbtmc_transmit_dev_msg_data.constprop.0:
.LVL628:
.LFB163:
	.loc 13 197 6 is_stmt 1 view -0
	.cfi_startproc
	@ args = 0, pretend = 0, frame = 0
	@ frame_needed = 0, uses_anonymous_args = 0
	.loc 13 205 3 view .LVU2616
	cbz	r1, .L798
	.loc 13 197 6 view .LVU2617
	push	{r4, r5, r6, r7, r8, lr}
	.cfi_def_cfa_offset 24
	.cfi_offset 4, -24
	.cfi_offset 5, -20
	.cfi_offset 6, -16
	.cfi_offset 7, -12
	.cfi_offset 8, -8
	.cfi_offset 14, -4
	.loc 13 206 3 view .LVU2618
	ldr	r6, .L801
	ldr	r3, [r6, #136]
	cmp	r1, r3
	mov	r4, r1
	bhi	.L797
.LVL629:
.LBB2067:
.LBB2068:
	.loc 13 207 3 view .LVU2619
	ldr	r7, [r6, #140]
	cbnz	r7, .L797
	.loc 13 216 3 view .LVU2620
	ldrb	r3, [r6]	@ zero_extendqisi2
	cmp	r3, #4
	beq	.L799
.LVL630:
.L786:
	.loc 13 216 3 is_stmt 0 view .LVU2621
.LBE2068:
.LBE2067:
	.loc 13 242 1 is_stmt 1 view .LVU2622
	movs	r0, #0
	pop	{r4, r5, r6, r7, r8, pc}
.LVL631:
.L797:
.LBB2091:
.LBB2088:
.LBB2069:
	.loc 13 207 3 view .LVU2623
	mov	r3, #-536813568
	ldr	r3, [r3, #3568]
	lsls	r3, r3, #31
	bpl	.L786
	.syntax unified
@ 207 "/Users/margaret/Github/tinylogicfriend/lib/tinyusb/src/class/usbtmc/usbtmc_device.c" 1
	BKPT #0

@ 0 "" 2
	.thumb
	.syntax unified
.LBE2069:
.LBE2088:
.LBE2091:
	.loc 13 242 1 view .LVU2624
	movs	r0, #0
.LVL632:
	.loc 13 242 1 is_stmt 0 view .LVU2625
	pop	{r4, r5, r6, r7, r8, pc}
.LVL633:
.L798:
	.cfi_def_cfa_offset 0
	.cfi_restore 4
	.cfi_restore 5
	.cfi_restore 6
	.cfi_restore 7
	.cfi_restore 8
	.cfi_restore 14
.LBB2092:
	.loc 13 205 3 is_stmt 1 view .LVU2626
	mov	r3, #-536813568
	ldr	r3, [r3, #3568]
	lsls	r2, r3, #31
.LVL634:
	.loc 13 205 3 is_stmt 0 view .LVU2627
	bpl	.L793
	.syntax unified
@ 205 "/Users/margaret/Github/tinylogicfriend/lib/tinyusb/src/class/usbtmc/usbtmc_device.c" 1
	BKPT #0

@ 0 "" 2
	.thumb
	.syntax unified
.L793:
.LBE2092:
	.loc 13 242 1 is_stmt 1 view .LVU2628
	movs	r0, #0
.LVL635:
	.loc 13 242 1 is_stmt 0 view .LVU2629
	bx	lr
.LVL636:
.L799:
	.cfi_def_cfa_offset 24
	.cfi_offset 4, -24
	.cfi_offset 5, -20
	.cfi_offset 6, -16
	.cfi_offset 7, -12
	.cfi_offset 8, -8
	.cfi_offset 14, -4
.LBB2093:
.LBB2089:
	.loc 13 220 34 is_stmt 1 view .LVU2630
	ldrb	r3, [r6, #145]	@ zero_extendqisi2
	.loc 13 218 3 view .LVU2631
	str	r7, [r6, #8]
	.loc 13 220 20 view .LVU2632
	strb	r3, [r6, #9]
	.loc 13 221 29 view .LVU2633
	mvns	r3, r3
	.loc 13 221 27 view .LVU2634
	strb	r3, [r6, #10]
	.loc 13 223 33 view .LVU2635
	mov	r3, r7
	bfi	r3, r2, #0, #1
	.loc 13 228 38 view .LVU2636
	add	r8, r1, #12
	.loc 13 222 21 view .LVU2637
	strd	r1, r7, [r6, #12]
	.loc 13 229 33 view .LVU2638
	cmp	r8, #64
	.loc 13 223 33 view .LVU2639
	strb	r3, [r6, #16]
.LVL637:
	.loc 13 219 21 view .LVU2640
	mov	r3, #2
	mov	r5, r0
	strb	r3, [r6, #8]
	.loc 13 229 33 view .LVU2641
	bls	.L800
.LVL638:
	.loc 13 232 3 view .LVU2642
	mov	r7, r0
	add	lr, r6, #20
	add	r8, r0, #48
.LVL639:
.L779:
	.loc 13 232 3 is_stmt 0 view .LVU2643
	ldr	r0, [r7]	@ unaligned
	ldr	r1, [r7, #4]	@ unaligned
	ldr	r2, [r7, #8]	@ unaligned
	ldr	r3, [r7, #12]	@ unaligned
	mov	ip, lr
	stmia	ip!, {r0, r1, r2, r3}
	adds	r7, r7, #16
	cmp	r7, r8
	mov	lr, ip
	bne	.L779
	ldr	r0, [r7]	@ unaligned
	str	r0, [ip]
	.loc 13 233 46 is_stmt 1 view .LVU2644
	subs	r4, r4, #52
.LVL640:
	.loc 13 234 35 view .LVU2645
	movs	r3, #52
	strd	r4, r3, [r6, #136]
	.loc 13 235 45 view .LVU2646
	adds	r5, r5, #52
.LVL641:
	.loc 13 235 28 view .LVU2647
	str	r5, [r6, #148]
	.loc 13 230 16 view .LVU2648
	mov	r8, #64
.LVL642:
	.loc 13 238 7 view .LVU2649
	movs	r1, #5
.LVL643:
.L776:
.LBB2070:
.LBB2071:
	.loc 13 176 3 view .LVU2650
	ldr	r3, .L801+4
	ldr	r2, [r3]
.LVL644:
.L777:
.LBB2072:
.LBB2073:
.LBB2074:
	.loc 14 67 17 view .LVU2651
	ldrh	r3, [r2]
	uxth	r3, r3
	.loc 14 67 9 view .LVU2652
	cmp	r3, #0
	beq	.L777
	.loc 14 68 10 view .LVU2653
	ldrh	r3, [r2]
	.loc 14 68 17 view .LVU2654
	subs	r3, r3, #1
	uxth	r3, r3
	strh	r3, [r2]	@ movhi
.LVL645:
	.loc 14 68 17 is_stmt 0 view .LVU2655
.LBE2074:
.LBE2073:
.LBE2072:
	.loc 13 177 22 is_stmt 1 view .LVU2656
	ldrb	r3, [r6]	@ zero_extendqisi2
.LVL646:
	.loc 13 178 6 view .LVU2657
	cmp	r3, #4
	beq	.L778
.LVL647:
.LBB2075:
.LBB2076:
.LBB2077:
	.loc 14 58 10 view .LVU2658
	ldrh	r3, [r2]
.LVL648:
	.loc 14 58 17 view .LVU2659
	adds	r3, r3, #1
	uxth	r3, r3
	strh	r3, [r2]	@ movhi
.LVL649:
	.loc 14 58 17 is_stmt 0 view .LVU2660
	b	.L786
.LVL650:
.L800:
	.loc 14 58 17 view .LVU2661
.LBE2077:
.LBE2076:
.LBE2075:
.LBE2071:
.LBE2070:
	.loc 13 232 3 is_stmt 1 view .LVU2662
	mov	r2, r1
.LVL651:
	.loc 13 232 3 is_stmt 0 view .LVU2663
	mov	r1, r0
.LVL652:
	.loc 13 232 3 view .LVU2664
	add	r0, r6, #20
.LVL653:
	.loc 13 232 3 view .LVU2665
	bl	memcpy
.LVL654:
	.loc 13 235 45 is_stmt 1 view .LVU2666
	add	r5, r5, r4
.LVL655:
	.loc 13 238 7 view .LVU2667
	cmp	r8, #64
	.loc 13 234 35 view .LVU2668
	strd	r7, r4, [r6, #136]
	.loc 13 235 28 view .LVU2669
	str	r5, [r6, #148]
	.loc 13 238 7 view .LVU2670
	ite	eq
	moveq	r1, #5
	movne	r1, #6
	b	.L776
.LVL656:
.L778:
.LBB2086:
.LBB2084:
	.loc 13 180 24 view .LVU2671
	strb	r1, [r6]
.LVL657:
.LBB2082:
.LBB2080:
.LBB2078:
	.loc 14 58 10 view .LVU2672
	ldrh	r3, [r2]
.LVL658:
	.loc 14 58 10 is_stmt 0 view .LVU2673
.LBE2078:
.LBE2080:
.LBE2082:
.LBE2084:
.LBE2086:
	.loc 13 240 3 is_stmt 1 view .LVU2674
	ldr	r1, .L801+8
.LVL659:
.LBB2087:
.LBB2085:
.LBB2083:
.LBB2081:
.LBB2079:
	.loc 14 58 17 view .LVU2675
	adds	r3, r3, #1
	uxth	r3, r3
	strh	r3, [r2]	@ movhi
.LVL660:
	.loc 14 58 17 is_stmt 0 view .LVU2676
.LBE2079:
.LBE2081:
.LBE2083:
.LBE2085:
.LBE2087:
	.loc 13 240 3 is_stmt 1 view .LVU2677
	ldrb	r0, [r6, #3]	@ zero_extendqisi2
	uxth	r2, r8
.LBE2089:
.LBE2093:
	.loc 13 242 1 view .LVU2678
	pop	{r4, r5, r6, r7, r8, lr}
	.cfi_restore 14
	.cfi_restore 8
	.cfi_restore 7
	.cfi_restore 6
	.cfi_restore 5
	.cfi_restore 4
	.cfi_def_cfa_offset 0
.LBB2094:
.LBB2090:
	.loc 13 240 3 view .LVU2679
	b	usbd_edpt_xfer.isra.0
.LVL661:
.L802:
	.align	2
.L801:
	.word	.LANCHOR4
	.word	.LANCHOR7
	.word	.LANCHOR4+8
.LBE2090:
.LBE2094:
	.cfi_endproc
.LFE163:
	.size	tud_usbtmc_transmit_dev_msg_data.constprop.0, .-tud_usbtmc_transmit_dev_msg_data.constprop.0
	.section	.text._data_stage_xact.isra.0,"ax",%progbits
	.align	1
	.p2align 2,,3
	.syntax unified
	.thumb
	.thumb_func
	.fpu fpv4-sp-d16
	.type	_data_stage_xact.isra.0, %function
_data_stage_xact.isra.0:
.LFB15:
	.loc 27 87 13 view -0
	.cfi_startproc
	@ args = 0, pretend = 0, frame = 8
	@ frame_needed = 0, uses_anonymous_args = 0
.LVL662:
	.loc 27 89 48 view .LVU2681
	ldr	r3, .L814
	ldrh	r0, [r3, #12]
	.loc 27 89 70 view .LVU2682
	ldrh	r1, [r3, #14]
.LVL663:
	.loc 27 93 6 view .LVU2683
	ldrsb	ip, [r3]
	.loc 27 89 29 view .LVU2684
	subs	r2, r0, r1
.LBB2095:
.LBB2096:
	.file 28 "/Users/margaret/Github/tinylogicfriend/lib/tinyusb/src/common/tusb_common.h"
	.loc 28 100 79 view .LVU2685
	uxth	r2, r2
	cmp	r2, #64
	it	cs
	movcs	r2, #64
.LVL664:
	.loc 28 100 79 is_stmt 0 view .LVU2686
.LBE2096:
.LBE2095:
	.loc 27 93 6 is_stmt 1 view .LVU2687
	cmp	ip, #0
	blt	.L812
	.loc 27 99 10 view .LVU2688
	cmp	r0, r1
	beq	.L813
	ldr	r1, .L814+4
	.loc 27 91 11 view .LVU2689
	movs	r0, #0
.LVL665:
	.loc 27 99 10 view .LVU2690
	b	usbd_edpt_xfer.isra.0
.LVL666:
.L812:
	.loc 27 96 8 view .LVU2691
	cmp	r0, r1
	beq	.L806
	.loc 27 87 13 view .LVU2692
	push	{lr}
	.cfi_def_cfa_offset 4
	.cfi_offset 14, -4
	sub	sp, sp, #12
	.cfi_def_cfa_offset 16
	.loc 27 96 21 view .LVU2693
	ldr	r1, [r3, #8]
	ldr	r0, .L814+4
	str	r2, [sp, #4]
	bl	memcpy
.LVL667:
	.loc 27 99 10 view .LVU2694
	ldr	r1, .L814+4
	ldr	r2, [sp, #4]
.LVL668:
	.loc 27 95 13 view .LVU2695
	movs	r0, #128
	.loc 27 100 1 view .LVU2696
	add	sp, sp, #12
	.cfi_def_cfa_offset 4
	@ sp needed
	ldr	lr, [sp], #4
	.cfi_restore 14
	.cfi_def_cfa_offset 0
.LVL669:
	.loc 27 99 10 view .LVU2697
	b	usbd_edpt_xfer.isra.0
.LVL670:
.L806:
	.loc 27 95 13 view .LVU2698
	movs	r0, #128
	.loc 27 99 10 view .LVU2699
	movs	r1, #0
.LVL671:
	.loc 27 99 10 is_stmt 0 view .LVU2700
	b	usbd_edpt_xfer.isra.0
.LVL672:
.L813:
	.loc 27 91 11 is_stmt 1 view .LVU2701
	movs	r0, #0
	.loc 27 99 10 view .LVU2702
	mov	r1, r0
.LVL673:
	.loc 27 99 10 is_stmt 0 view .LVU2703
	b	usbd_edpt_xfer.isra.0
.LVL674:
.L815:
	.loc 27 99 10 view .LVU2704
	.align	2
.L814:
	.word	.LANCHOR17
	.word	.LANCHOR20
	.cfi_endproc
.LFE15:
	.size	_data_stage_xact.isra.0, .-_data_stage_xact.isra.0
	.section	.text.tud_control_xfer.isra.0,"ax",%progbits
	.align	1
	.p2align 2,,3
	.syntax unified
	.thumb
	.thumb_func
	.fpu fpv4-sp-d16
	.type	tud_control_xfer.isra.0, %function
tud_control_xfer.isra.0:
.LVL675:
.LFB17:
	.loc 27 104 6 is_stmt 1 view -0
	.cfi_startproc
	@ args = 0, pretend = 0, frame = 0
	@ frame_needed = 0, uses_anonymous_args = 0
	.loc 27 104 6 is_stmt 0 view .LVU2706
	push	{r4, lr}
	.cfi_def_cfa_offset 8
	.cfi_offset 4, -8
	.cfi_offset 14, -4
	.loc 27 104 6 is_stmt 1 view .LVU2707
	mov	ip, r0
	.loc 27 106 28 view .LVU2708
	ldr	r4, .L840
	ldr	r0, [r0]	@ unaligned
.LVL676:
	.loc 27 104 6 view .LVU2709
	mov	r3, r1
	.loc 27 106 28 view .LVU2710
	ldr	r1, [ip, #4]	@ unaligned
.LVL677:
	.loc 27 107 28 view .LVU2711
	str	r3, [r4, #8]
	.loc 27 106 28 view .LVU2712
	mov	lr, r4
	stmia	lr!, {r0, r1}
	.loc 27 108 28 view .LVU2713
	movs	r1, #0
	strh	r1, [r4, #14]	@ movhi
.LVL678:
.LBB2104:
.LBB2105:
	.loc 28 100 79 view .LVU2714
	ldrh	r1, [ip, #6]	@ unaligned
	cmp	r2, r1
	it	cs
	movcs	r2, r1
.LVL679:
	.loc 28 100 79 is_stmt 0 view .LVU2715
.LBE2105:
.LBE2104:
	.loc 27 109 28 is_stmt 1 view .LVU2716
	strh	r2, [r4, #12]	@ movhi
	.loc 27 111 6 view .LVU2717
	ldrh	r1, [ip, #6]	@ unaligned
	cbz	r1, .L817
	.loc 27 113 7 view .LVU2718
	cbz	r2, .L818
	.loc 27 115 7 view .LVU2719
	cbz	r3, .L839
.L818:
	.loc 27 121 5 view .LVU2720
	bl	_data_stage_xact.isra.0
.LVL680:
	.loc 27 121 5 is_stmt 0 view .LVU2721
	cbz	r0, .L838
.L824:
	.loc 27 129 10 is_stmt 1 view .LVU2722
	movs	r0, #1
	.loc 27 130 1 view .LVU2723
	pop	{r4, pc}
.LVL681:
.L817:
.LBB2106:
.LBB2107:
	.loc 27 69 17 view .LVU2724
	ldrsb	r3, [ip]
.LVL682:
	.loc 27 69 17 is_stmt 0 view .LVU2725
	cmp	r3, #0
.LVL683:
	.loc 27 70 10 is_stmt 1 view .LVU2726
	ite	ge
	movge	r0, #128
	movlt	r0, #0
	mov	r2, r1
	bl	usbd_edpt_xfer.isra.0
.LVL684:
	.loc 27 70 10 is_stmt 0 view .LVU2727
.LBE2107:
.LBE2106:
	.loc 27 126 5 is_stmt 1 view .LVU2728
	cmp	r0, #0
	bne	.L824
.L838:
.LVL685:
.LBB2108:
	.loc 27 126 5 is_stmt 0 view .LVU2729
	mov	r3, #-536813568
	ldr	r3, [r3, #3568]
	lsls	r3, r3, #31
	bpl	.L822
	.syntax unified
@ 126 "/Users/margaret/Github/tinylogicfriend/lib/tinyusb/src/device/usbd_control.c" 1
	BKPT #0

@ 0 "" 2
	.thumb
	.syntax unified
.LBE2108:
	.loc 27 130 1 is_stmt 1 view .LVU2730
	pop	{r4, pc}
.LVL686:
.L839:
.LBB2109:
	.loc 27 115 7 view .LVU2731
	mov	r2, #-536813568
	ldr	r2, [r2, #3568]
	lsls	r2, r2, #31
	bmi	.L819
.LVL687:
.L822:
	.loc 27 115 7 is_stmt 0 view .LVU2732
.LBE2109:
	movs	r0, #0
	.loc 27 130 1 is_stmt 1 view .LVU2733
	pop	{r4, pc}
.LVL688:
.L819:
.LBB2110:
	.loc 27 115 7 view .LVU2734
	.syntax unified
@ 115 "/Users/margaret/Github/tinylogicfriend/lib/tinyusb/src/device/usbd_control.c" 1
	BKPT #0

@ 0 "" 2
	.thumb
	.syntax unified
.LBE2110:
	mov	r0, r3
	.loc 27 130 1 view .LVU2735
	pop	{r4, pc}
.L841:
	.align	2
.L840:
	.word	.LANCHOR17
	.cfi_endproc
.LFE17:
	.size	tud_control_xfer.isra.0, .-tud_control_xfer.isra.0
	.section	.text.usbtmcd_control_xfer_cb,"ax",%progbits
	.align	1
	.p2align 2,,3
	.syntax unified
	.thumb
	.thumb_func
	.fpu fpv4-sp-d16
	.type	usbtmcd_control_xfer_cb, %function
usbtmcd_control_xfer_cb:
.LVL689:
.LFB338:
	.loc 13 582 1 view -0
	.cfi_startproc
	@ args = 0, pretend = 0, frame = 16
	@ frame_needed = 0, uses_anonymous_args = 0
	.loc 13 584 3 view .LVU2737
	.loc 13 584 6 is_stmt 0 view .LVU2738
	cmp	r1, #0
	bne	.L896
.LVL690:
.LBB2212:
.LBI2212:
	.loc 13 581 6 is_stmt 1 view .LVU2739
	.loc 13 581 6 is_stmt 0 view .LVU2740
.LBE2212:
	.loc 13 582 1 view .LVU2741
	push	{r4, r5, lr}
	.cfi_def_cfa_offset 12
	.cfi_offset 4, -12
	.cfi_offset 5, -8
	.cfi_offset 14, -4
.LBB2362:
.LBB2213:
	.loc 13 591 66 view .LVU2742
	ldrb	r3, [r2]	@ zero_extendqisi2
.LBE2213:
.LBE2362:
	.loc 13 582 1 view .LVU2743
	sub	sp, sp, #20
	.cfi_def_cfa_offset 32
	mov	r4, r2
.LBB2363:
.LBB2359:
	.loc 13 591 5 view .LVU2744
	and	r2, r3, #127
.LVL691:
	.loc 13 586 11 view .LVU2745
	movs	r0, #128
.LVL692:
	.loc 13 591 5 view .LVU2746
	cmp	r2, #2
	.loc 13 586 11 view .LVU2747
	strb	r0, [sp, #3]
	.loc 13 591 5 view .LVU2748
	beq	.L954
.L844:
	.loc 13 617 5 view .LVU2749
	and	r2, r3, #96
	cmp	r2, #32
	bne	.L914
	.loc 13 624 17 view .LVU2750
	ldrb	r0, [r4, #1]	@ zero_extendqisi2
	.loc 13 624 3 view .LVU2751
	cmp	r0, #64
	bhi	.L849
	cmp	r0, #0
	beq	.L949
	subs	r0, r0, #1
	cmp	r0, #63
	bhi	.L914
	tbh	[pc, r0, lsl #1]
.L851:
	.2byte	(.L858-.L851)/2
	.2byte	(.L857-.L851)/2
	.2byte	(.L856-.L851)/2
	.2byte	(.L855-.L851)/2
	.2byte	(.L854-.L851)/2
	.2byte	(.L853-.L851)/2
	.2byte	(.L852-.L851)/2
	.2byte	(.L914-.L851)/2
	.2byte	(.L914-.L851)/2
	.2byte	(.L914-.L851)/2
	.2byte	(.L914-.L851)/2
	.2byte	(.L914-.L851)/2
	.2byte	(.L914-.L851)/2
	.2byte	(.L914-.L851)/2
	.2byte	(.L914-.L851)/2
	.2byte	(.L914-.L851)/2
	.2byte	(.L914-.L851)/2
	.2byte	(.L914-.L851)/2
	.2byte	(.L914-.L851)/2
	.2byte	(.L914-.L851)/2
	.2byte	(.L914-.L851)/2
	.2byte	(.L914-.L851)/2
	.2byte	(.L914-.L851)/2
	.2byte	(.L914-.L851)/2
	.2byte	(.L914-.L851)/2
	.2byte	(.L914-.L851)/2
	.2byte	(.L914-.L851)/2
	.2byte	(.L914-.L851)/2
	.2byte	(.L914-.L851)/2
	.2byte	(.L914-.L851)/2
	.2byte	(.L914-.L851)/2
	.2byte	(.L914-.L851)/2
	.2byte	(.L914-.L851)/2
	.2byte	(.L914-.L851)/2
	.2byte	(.L914-.L851)/2
	.2byte	(.L914-.L851)/2
	.2byte	(.L914-.L851)/2
	.2byte	(.L914-.L851)/2
	.2byte	(.L914-.L851)/2
	.2byte	(.L914-.L851)/2
	.2byte	(.L914-.L851)/2
	.2byte	(.L914-.L851)/2
	.2byte	(.L914-.L851)/2
	.2byte	(.L914-.L851)/2
	.2byte	(.L914-.L851)/2
	.2byte	(.L914-.L851)/2
	.2byte	(.L914-.L851)/2
	.2byte	(.L914-.L851)/2
	.2byte	(.L914-.L851)/2
	.2byte	(.L914-.L851)/2
	.2byte	(.L914-.L851)/2
	.2byte	(.L914-.L851)/2
	.2byte	(.L914-.L851)/2
	.2byte	(.L914-.L851)/2
	.2byte	(.L914-.L851)/2
	.2byte	(.L914-.L851)/2
	.2byte	(.L914-.L851)/2
	.2byte	(.L914-.L851)/2
	.2byte	(.L914-.L851)/2
	.2byte	(.L914-.L851)/2
	.2byte	(.L914-.L851)/2
	.2byte	(.L914-.L851)/2
	.2byte	(.L914-.L851)/2
	.2byte	(.L850-.L851)/2
	.p2align 1
.L849:
	cmp	r0, #128
	beq	.L859
.LVL693:
.L914:
	.loc 13 619 12 view .LVU2752
	movs	r0, #0
.LVL694:
.L949:
	.loc 13 619 12 view .LVU2753
.LBE2359:
.LBE2363:
	.loc 13 862 1 view .LVU2754
	add	sp, sp, #20
	.cfi_remember_state
	.cfi_def_cfa_offset 12
	@ sp needed
	pop	{r4, r5, pc}
.LVL695:
.L954:
	.cfi_restore_state
.LBB2364:
.LBB2360:
	.loc 13 592 72 view .LVU2755
	ldrb	r2, [r4, #1]	@ zero_extendqisi2
	cmp	r2, #1
	bne	.L844
	.loc 13 593 53 view .LVU2756
	ldrh	r3, [r4, #2]	@ unaligned
	cmp	r3, #0
	bne	.L845
.LBB2214:
	.loc 13 598 31 view .LVU2757
	ldr	r5, .L956
	.loc 13 596 14 view .LVU2758
	ldrh	r3, [r4, #4]	@ unaligned
.LVL696:
	.loc 13 598 31 view .LVU2759
	ldrb	r2, [r5, #4]	@ zero_extendqisi2
	.loc 13 598 7 view .LVU2760
	cmp	r3, r2
	beq	.L955
	.loc 13 605 37 view .LVU2761
	ldrb	r0, [r5, #3]	@ zero_extendqisi2
	.loc 13 605 13 view .LVU2762
	subs	r0, r0, r3
	clz	r0, r0
	lsrs	r0, r0, #5
	b	.L949
.LVL697:
.L896:
	.cfi_def_cfa_offset 0
	.cfi_restore 4
	.cfi_restore 5
	.cfi_restore 14
	.loc 13 605 13 view .LVU2763
.LBE2214:
.LBE2360:
.LBE2364:
	.loc 13 584 46 view .LVU2764
	movs	r0, #1
.LVL698:
	.loc 13 862 1 view .LVU2765
	bx	lr
.LVL699:
.L859:
	.cfi_def_cfa_offset 32
	.cfi_offset 4, -12
	.cfi_offset 5, -8
	.cfi_offset 14, -4
.LBB2365:
.LBB2361:
.LBB2228:
	.loc 13 814 7 view .LVU2766
	cmp	r3, #161
	bne	.L914
	.loc 13 815 7 view .LVU2767
	ldrh	r3, [r4, #6]	@ unaligned
	cmp	r3, #3
	bne	.L914
	.loc 13 817 21 view .LVU2768
	ldrh	r2, [r4, #2]	@ unaligned
.LVL700:
	.loc 13 819 7 view .LVU2769
	bics	r3, r2, #127
	bne	.L914
	.loc 13 817 30 view .LVU2770
	uxtb	r1, r2
.LVL701:
	.loc 13 820 7 view .LVU2771
	subs	r0, r1, #2
	cmp	r0, #125
	bhi	.L914
	.loc 13 821 7 view .LVU2772
	ldr	r0, .L956
	ldrh	ip, [r4, #4]	@ unaligned
	ldrb	r5, [r0, #1]	@ zero_extendqisi2
	cmp	ip, r5
	bne	.L914
	.loc 13 824 22 view .LVU2773
	ldrb	r0, [r0, #5]	@ zero_extendqisi2
	.loc 13 823 16 view .LVU2774
	strb	r1, [sp, #9]
	.loc 13 824 9 view .LVU2775
	cmp	r0, #0
	beq	.L894
.LBB2229:
	.loc 13 826 27 view .LVU2776
	movs	r1, #1
	strb	r1, [sp, #8]
.LBB2230:
.LBB2231:
	.loc 6 384 11 view .LVU2777
	ldr	r1, .L956+4
.LBE2231:
.LBE2230:
	.loc 13 827 24 view .LVU2778
	strb	r3, [sp, #10]
	.loc 13 829 41 view .LVU2779
	orn	r2, r2, #127
.LVL702:
	.loc 13 829 41 view .LVU2780
	strb	r2, [sp, #4]
.LVL703:
.LBB2234:
.LBI2230:
	.loc 6 382 9 is_stmt 1 view .LVU2781
.LBB2232:
	.loc 6 384 3 view .LVU2782
	.loc 6 384 11 is_stmt 0 view .LVU2783
	ldrb	r2, [r1]	@ zero_extendqisi2
.LVL704:
	.loc 6 385 3 is_stmt 1 view .LVU2784
	.loc 6 385 12 is_stmt 0 view .LVU2785
	ldrb	r3, [r1]	@ zero_extendqisi2
.LBE2232:
.LBE2234:
	.loc 13 829 41 view .LVU2786
	strb	r2, [sp, #5]
.LBB2235:
.LBB2233:
	.loc 6 385 12 view .LVU2787
	and	r3, r3, #191
	.loc 6 385 10 view .LVU2788
	strb	r3, [r1]
	.loc 6 387 3 is_stmt 1 view .LVU2789
	.loc 6 390 3 view .LVU2790
.LVL705:
	.loc 6 390 3 is_stmt 0 view .LVU2791
.LBE2233:
.LBE2235:
	.loc 13 837 9 view .LVU2792
	movs	r2, #2
	add	r1, sp, #4
	bl	usbd_edpt_xfer.isra.0
.LVL706:
.L895:
.LBE2229:
	.loc 13 843 7 view .LVU2793
	movs	r2, #3
	add	r1, sp, #8
	mov	r0, r4
	bl	tud_control_xfer.isra.0
.LVL707:
	b	.L949
.LVL708:
.L845:
	.loc 13 843 7 view .LVU2794
.LBE2228:
	.loc 13 619 12 view .LVU2795
	mov	r0, r1
	b	.L949
.L857:
.LBB2240:
	.loc 13 663 39 view .LVU2796
	ldr	r1, .L956
.LVL709:
	.loc 13 661 35 view .LVU2797
	movs	r2, #1
	movs	r0, #0
	strb	r2, [sp, #8]
	.loc 13 665 5 view .LVU2798
	cmp	r3, #162
	.loc 13 661 35 view .LVU2799
	ldr	r2, [r1, #140]
	strh	r0, [sp, #9]	@ unaligned
	strb	r0, [sp, #11]
	str	r2, [sp, #12]
	.loc 13 665 5 view .LVU2800
	bne	.L949
	.loc 13 666 5 view .LVU2801
	ldrh	r5, [r4, #6]	@ unaligned
	cmp	r5, #8
	bne	.L949
	.loc 13 667 5 view .LVU2802
	ldrh	r2, [r4, #4]	@ unaligned
	ldrb	r3, [r1, #4]	@ zero_extendqisi2
	cmp	r2, r3
	bne	.L949
.LBB2241:
.LBI2241:
	.loc 6 353 6 is_stmt 1 view .LVU2803
.LVL710:
.LBB2242:
	.loc 6 356 3 is_stmt 0 view .LVU2804
	bl	tud_usbtmc_start_bus_read.isra.0
.LVL711:
	.loc 6 356 3 view .LVU2805
.LBE2242:
.LBE2241:
	.loc 13 669 5 view .LVU2806
	mov	r2, r5
	add	r1, sp, #8
	mov	r0, r4
	bl	tud_control_xfer.isra.0
.LVL712:
	b	.L949
.LVL713:
.L856:
	.loc 13 669 5 view .LVU2807
.LBE2240:
.LBB2243:
	.loc 13 676 29 view .LVU2808
	ldr	r5, .L956
	.loc 13 678 5 view .LVU2809
	cmp	r3, #162
	.loc 13 676 29 view .LVU2810
	ldrb	r2, [r5, #145]	@ zero_extendqisi2
	.loc 13 675 33 view .LVU2811
	strb	r2, [sp, #9]
	.loc 13 678 5 view .LVU2812
	bne	.L914
	.loc 13 679 5 view .LVU2813
	ldrh	r3, [r4, #6]	@ unaligned
	cmp	r3, #2
	bne	.L914
	.loc 13 680 5 view .LVU2814
	ldrh	r1, [r4, #4]	@ unaligned
.LVL714:
	.loc 13 680 5 view .LVU2815
	ldrb	r3, [r5, #3]	@ zero_extendqisi2
	cmp	r1, r3
	bne	.L914
	.loc 13 682 21 view .LVU2816
	ldrb	r3, [r5]	@ zero_extendqisi2
	.loc 13 682 7 view .LVU2817
	cmp	r3, #4
	beq	.L871
	.loc 13 682 65 view .LVU2818
	ldrb	r3, [r5]	@ zero_extendqisi2
	.loc 13 682 50 view .LVU2819
	cmp	r3, #5
	beq	.L871
.L872:
	.loc 13 700 26 view .LVU2820
	ldrb	r3, [r5]	@ zero_extendqisi2
	.loc 13 700 12 view .LVU2821
	cmp	r3, #4
	beq	.L877
	.loc 13 700 70 view .LVU2822
	ldrb	r3, [r5]	@ zero_extendqisi2
	.loc 13 700 55 view .LVU2823
	cmp	r3, #5
	beq	.L877
.L878:
	.loc 13 706 25 view .LVU2824
	movs	r3, #128
	strb	r3, [sp, #8]
.L891:
.LBE2243:
.LBB2252:
	.loc 13 786 7 view .LVU2825
	movs	r2, #2
	add	r1, sp, #8
	mov	r0, r4
	bl	tud_control_xfer.isra.0
.LVL715:
	b	.L949
.LVL716:
.L855:
	.loc 13 786 7 view .LVU2826
.LBE2252:
.LBB2273:
	.loc 13 714 5 view .LVU2827
	cmp	r3, #162
	bne	.L914
	.loc 13 715 5 view .LVU2828
	ldrh	r3, [r4, #6]	@ unaligned
	cmp	r3, #8
	bne	.L914
	.loc 13 722 45 view .LVU2829
	ldr	r5, .L956
	.loc 13 717 35 view .LVU2830
	movs	r2, #0
	.loc 13 722 45 view .LVU2831
	ldrb	r3, [r5]	@ zero_extendqisi2
	.loc 13 717 35 view .LVU2832
	strh	r2, [sp, #9]	@ unaligned
	.loc 13 722 52 view .LVU2833
	subs	r3, r3, #10
	.loc 13 717 35 view .LVU2834
	ldrb	r1, [sp, #9]	@ zero_extendqisi2
.LVL717:
	.loc 13 717 35 view .LVU2835
	strb	r2, [sp, #11]
	.loc 13 722 52 view .LVU2836
	it	ne
	movne	r3, #1
	.loc 13 717 35 view .LVU2837
	bfi	r1, r3, #0, #1
	movs	r0, #128
	ldr	r3, [r5, #140]
	strb	r1, [sp, #9]
	str	r3, [sp, #12]
.LBB2274:
.LBI2274:
	.loc 6 353 6 is_stmt 1 view .LVU2838
.LVL718:
	.loc 6 353 6 is_stmt 0 view .LVU2839
.LBE2274:
	.loc 13 717 35 view .LVU2840
	strb	r0, [sp, #8]
.LBB2276:
.LBB2275:
	.loc 6 356 3 view .LVU2841
	bl	tud_usbtmc_start_bus_read.isra.0
.LVL719:
	.loc 6 356 3 view .LVU2842
.LBE2275:
.LBE2276:
	.loc 13 727 5 view .LVU2843
	ldr	r3, .L956+8
	ldr	r1, [r3]
.LVL720:
.L880:
.LBB2277:
.LBB2278:
.LBB2279:
	.loc 14 67 17 view .LVU2844
	ldrh	r3, [r1]
	uxth	r3, r3
	.loc 14 67 9 view .LVU2845
	cmp	r3, #0
	beq	.L880
	.loc 14 68 10 view .LVU2846
	ldrh	r3, [r1]
	.loc 14 68 17 view .LVU2847
	subs	r3, r3, #1
	uxth	r3, r3
	strh	r3, [r1]	@ movhi
.LVL721:
	.loc 14 68 17 view .LVU2848
.LBE2279:
.LBE2278:
.LBE2277:
	.loc 13 728 24 view .LVU2849
	ldrb	r2, [r5]	@ zero_extendqisi2
	cmp	r2, #10
	uxtb	r3, r2
	beq	.L881
	cmp	r3, #11
	beq	.L882
	cmp	r3, #8
	beq	.L882
.L883:
.LVL722:
.LBB2280:
.LBB2281:
.LBB2282:
	.loc 14 58 10 view .LVU2850
	ldrh	r3, [r1]
	.loc 14 58 17 view .LVU2851
	adds	r3, r3, #1
.LBE2282:
.LBE2281:
.LBE2280:
	.loc 13 742 5 view .LVU2852
	movs	r2, #8
.LBB2285:
.LBB2284:
.LBB2283:
	.loc 14 58 17 view .LVU2853
	uxth	r3, r3
	strh	r3, [r1]	@ movhi
.LVL723:
	.loc 14 58 17 view .LVU2854
.LBE2283:
.LBE2284:
.LBE2285:
	.loc 13 742 5 view .LVU2855
	mov	r0, r4
	add	r1, sp, r2
	bl	tud_control_xfer.isra.0
.LVL724:
	b	.L949
.LVL725:
.L852:
	.loc 13 742 5 view .LVU2856
.LBE2273:
	.loc 13 792 7 view .LVU2857
	cmp	r3, #161
	bne	.L914
	.loc 13 793 7 view .LVU2858
	ldrh	r2, [r4, #6]	@ unaligned
	cmp	r2, #24
	bne	.L914
	.loc 13 794 7 view .LVU2859
	ldr	r3, .L956
	mov	r0, r4
	ldr	r1, [r3, #152]
.LVL726:
	.loc 13 794 7 view .LVU2860
	bl	tud_control_xfer.isra.0
.LVL727:
	b	.L949
.LVL728:
.L854:
	.loc 13 749 7 view .LVU2861
	cmp	r3, #161
	bne	.L914
	.loc 13 750 7 view .LVU2862
	ldrh	r3, [r4, #6]	@ unaligned
	cmp	r3, #1
	bne	.L914
	.loc 13 753 7 view .LVU2863
	ldr	r5, .L956
	ldrb	r2, [r5, #4]	@ zero_extendqisi2
.LVL729:
.LBB2286:
.LBI2286:
	.loc 23 1254 6 is_stmt 1 view .LVU2864
.LBB2287:
.LBB2288:
.LBB2289:
	.loc 25 282 27 is_stmt 0 view .LVU2865
	and	r3, r2, #127
	lsls	r3, r3, #5
	.loc 25 282 22 view .LVU2866
	add	r3, r3, #1090519040
.LBE2289:
.LBE2288:
.LBB2291:
.LBB2292:
	.loc 24 465 10 view .LVU2867
	and	r1, r2, #127
.LVL730:
	.loc 24 465 10 view .LVU2868
.LBE2292:
.LBE2291:
.LBB2293:
.LBI2288:
	.loc 25 277 6 is_stmt 1 view .LVU2869
.LBB2290:
	.loc 25 282 22 is_stmt 0 view .LVU2870
	add	r3, r3, #256
.LVL731:
	.loc 25 284 6 view .LVU2871
	lsrs	r2, r2, #7
.LVL732:
	.loc 25 285 25 view .LVU2872
	ite	ne
	movne	r0, #32
	.loc 25 287 25 view .LVU2873
	moveq	r0, #16
	strb	r0, [r3, #5]
.LVL733:
	.loc 25 287 25 view .LVU2874
.LBE2290:
.LBE2293:
	.loc 23 1260 43 view .LVU2875
	ldr	r3, .L956+12
	add	r3, r3, r1, lsl #1
	add	r3, r3, r2
.LBE2287:
.LBE2286:
	.loc 13 755 7 view .LVU2876
	ldr	r1, .L956+8
.LVL734:
.LBB2296:
.LBB2294:
	.loc 23 1260 43 view .LVU2877
	ldrb	r2, [r3, #37]	@ zero_extendqisi2
.LBE2294:
.LBE2296:
	.loc 13 755 7 view .LVU2878
	ldr	r1, [r1]
.LBB2297:
.LBB2295:
	.loc 23 1260 43 view .LVU2879
	orr	r2, r2, #2
	strb	r2, [r3, #37]
	.loc 23 1261 40 view .LVU2880
	ldrb	r2, [r3, #37]	@ zero_extendqisi2
	orr	r2, r2, #1
	strb	r2, [r3, #37]
.LVL735:
	.loc 23 1261 40 view .LVU2881
.LBE2295:
.LBE2297:
	.loc 13 754 44 view .LVU2882
	movs	r3, #0
	str	r3, [r5, #136]
.L886:
.LBB2298:
.LBB2299:
.LBB2300:
	.loc 14 67 17 view .LVU2883
	ldrh	r3, [r1]
	uxth	r3, r3
	.loc 14 67 9 view .LVU2884
	cmp	r3, #0
	beq	.L886
	.loc 14 68 10 view .LVU2885
	ldrh	r3, [r1]
	.loc 14 68 17 view .LVU2886
	subs	r3, r3, #1
.LBE2300:
.LBE2299:
.LBE2298:
	.loc 13 756 26 view .LVU2887
	movs	r2, #7
.LBB2303:
.LBB2302:
.LBB2301:
	.loc 14 68 17 view .LVU2888
	uxth	r3, r3
	strh	r3, [r1]	@ movhi
.LVL736:
	.loc 14 68 17 view .LVU2889
.LBE2301:
.LBE2302:
.LBE2303:
	.loc 13 756 26 view .LVU2890
	strb	r2, [r5]
.LVL737:
.LBB2304:
.LBB2305:
.LBB2306:
	.loc 14 58 10 view .LVU2891
	ldrh	r3, [r1]
.LBE2306:
.LBE2305:
.LBE2304:
.LBB2309:
.LBB2310:
	.loc 6 329 14 view .LVU2892
	ldr	r5, .L956+16
	.loc 6 328 14 view .LVU2893
	movs	r2, #1
.LBE2310:
.LBE2309:
.LBB2314:
.LBB2308:
.LBB2307:
	.loc 14 58 17 view .LVU2894
	add	r3, r3, r2
	uxth	r3, r3
	strh	r3, [r1]	@ movhi
.LVL738:
	.loc 14 58 17 view .LVU2895
.LBE2307:
.LBE2308:
.LBE2314:
.LBB2315:
.LBI2309:
	.loc 6 326 6 is_stmt 1 view .LVU2896
.LBB2311:
	.loc 6 328 3 view .LVU2897
	.loc 6 330 17 is_stmt 0 view .LVU2898
	ldr	r1, .L956+20
	.loc 6 328 14 view .LVU2899
	strb	r2, [sp, #3]
	.loc 6 329 3 is_stmt 1 view .LVU2900
	.loc 6 329 14 is_stmt 0 view .LVU2901
	movs	r3, #0
.LBE2311:
.LBE2315:
	.loc 13 759 7 view .LVU2902
	mov	r0, r4
.LBB2316:
.LBB2312:
	.loc 6 331 10 view .LVU2903
	ldr	r4, .L956+4
.LVL739:
	.loc 6 329 14 view .LVU2904
	strh	r3, [r5]	@ movhi
	.loc 6 330 3 is_stmt 1 view .LVU2905
	.loc 6 330 17 is_stmt 0 view .LVU2906
	str	r3, [r1]
	.loc 6 331 3 is_stmt 1 view .LVU2907
.LBE2312:
.LBE2316:
	.loc 13 759 7 is_stmt 0 view .LVU2908
	add	r1, sp, #3
.LVL740:
.LBB2317:
.LBB2313:
	.loc 6 331 10 view .LVU2909
	strb	r3, [r4]
	.loc 6 332 3 is_stmt 1 view .LVU2910
.LVL741:
	.loc 6 332 3 is_stmt 0 view .LVU2911
.LBE2313:
.LBE2317:
	.loc 13 759 7 view .LVU2912
	bl	tud_control_xfer.isra.0
.LVL742:
	.loc 13 759 7 view .LVU2913
	b	.L949
.LVL743:
.L853:
.LBB2318:
	.loc 13 765 7 view .LVU2914
	cmp	r3, #161
	bne	.L914
	.loc 13 767 7 view .LVU2915
	ldrh	r2, [r4, #6]	@ unaligned
	.loc 13 766 37 view .LVU2916
	movs	r3, #0
	.loc 13 767 7 view .LVU2917
	cmp	r2, #2
	.loc 13 766 37 view .LVU2918
	strh	r3, [sp, #8]	@ movhi
	.loc 13 767 7 view .LVU2919
	bne	.L914
	.loc 13 769 10 view .LVU2920
	ldr	r5, .L956
.LBB2253:
.LBB2254:
	.loc 23 1251 41 view .LVU2921
	ldr	r3, .L956+12
.LBE2254:
.LBE2253:
	.loc 13 769 10 view .LVU2922
	ldrb	r1, [r5, #3]	@ zero_extendqisi2
.LVL744:
.LBB2256:
.LBI2253:
	.loc 23 1244 6 is_stmt 1 view .LVU2923
.LBB2255:
	.loc 23 1251 41 is_stmt 0 view .LVU2924
	and	r0, r1, #127
	add	r3, r3, r0, lsl #1
	add	r3, r3, r1, lsr #7
	adds	r3, r3, #32
	ldrb	r3, [r3, #5]	@ zero_extendqisi2
.LBE2255:
.LBE2256:
	.loc 13 769 9 view .LVU2925
	ands	r3, r3, #1
	beq	.L890
	.loc 13 772 48 view .LVU2926
	ldrb	r3, [sp, #9]	@ zero_extendqisi2
	.loc 13 773 38 view .LVU2927
	strb	r2, [sp, #8]
	.loc 13 772 48 view .LVU2928
	orr	r3, r3, #1
	strb	r3, [sp, #9]
	b	.L891
.LVL745:
.L850:
	.loc 13 772 48 view .LVU2929
.LBE2318:
	.loc 13 801 7 view .LVU2930
	cmp	r3, #161
	bne	.L914
	.loc 13 802 7 view .LVU2931
	ldrh	r2, [r4, #6]	@ unaligned
	cmp	r2, #1
	bne	.L914
	.loc 13 803 7 view .LVU2932
	ldr	r3, .L956
	ldr	r3, [r3, #152]
	ldrb	r3, [r3, #4]	@ zero_extendqisi2
	ands	r0, r3, #4
	beq	.L949
.LVL746:
.LBB2319:
.LBI2319:
	.loc 6 393 6 is_stmt 1 view .LVU2933
.LBB2320:
.LBB2321:
.LBI2321:
	.loc 2 203 6 view .LVU2934
.LBB2322:
	.loc 2 204 2 view .LVU2935
	.loc 2 204 10 is_stmt 0 view .LVU2936
	ldr	r3, .L956+24
.LBE2322:
.LBE2321:
	.loc 6 397 14 view .LVU2937
	strb	r2, [sp, #3]
.LVL747:
	.loc 6 397 14 view .LVU2938
.LBE2320:
.LBE2319:
	.loc 13 805 7 view .LVU2939
	add	r1, sp, #3
.LVL748:
	.loc 13 805 7 view .LVU2940
	mov	r0, r4
.LBB2326:
.LBB2325:
.LBB2324:
.LBB2323:
	.loc 2 204 10 view .LVU2941
	strb	r2, [r3]
.LBE2323:
.LBE2324:
.LBE2325:
.LBE2326:
	.loc 13 805 7 view .LVU2942
	bl	tud_control_xfer.isra.0
.LVL749:
	b	.L949
.L957:
	.align	2
.L956:
	.word	.LANCHOR4
	.word	.LANCHOR2
	.word	.LANCHOR7
	.word	.LANCHOR14
	.word	.LANCHOR22
	.word	.LANCHOR21
	.word	.LANCHOR3
.LVL750:
.L858:
.LBB2327:
	.loc 13 630 29 view .LVU2943
	ldr	r5, .L958
	.loc 13 632 5 view .LVU2944
	cmp	r3, #162
	.loc 13 630 29 view .LVU2945
	ldrb	r2, [r5, #144]	@ zero_extendqisi2
	.loc 13 629 33 view .LVU2946
	strb	r2, [sp, #9]
	.loc 13 632 5 view .LVU2947
	bne	.L914
	.loc 13 633 5 view .LVU2948
	ldrh	r3, [r4, #6]	@ unaligned
	cmp	r3, #2
	bne	.L914
	.loc 13 634 5 view .LVU2949
	ldrh	r1, [r4, #4]	@ unaligned
.LVL751:
	.loc 13 634 5 view .LVU2950
	ldrb	r3, [r5, #4]	@ zero_extendqisi2
	cmp	r1, r3
	bne	.L914
	.loc 13 637 20 view .LVU2951
	ldrb	r3, [r5]	@ zero_extendqisi2
	.loc 13 637 7 view .LVU2952
	cmp	r3, #3
	bne	.L878
	.loc 13 641 52 view .LVU2953
	ldrh	r3, [r4, #2]	@ unaligned
	.loc 13 641 61 view .LVU2954
	and	r3, r3, #127
	.loc 13 641 12 view .LVU2955
	cmp	r2, r3
	beq	.L877
	.loc 13 649 7 view .LVU2956
	ldr	r2, .L958+4
	.loc 13 647 25 view .LVU2957
	movs	r3, #1
	.loc 13 649 7 view .LVU2958
	ldr	r2, [r2]
.LVL752:
	.loc 13 647 25 view .LVU2959
	strb	r3, [sp, #8]
.L864:
.LBB2328:
.LBB2329:
.LBB2330:
	.loc 14 67 17 view .LVU2960
	ldrh	r3, [r2]
	uxth	r3, r3
	.loc 14 67 9 view .LVU2961
	cmp	r3, #0
	beq	.L864
	.loc 14 68 10 view .LVU2962
	ldrh	r3, [r2]
	.loc 14 68 17 view .LVU2963
	subs	r3, r3, #1
.LBE2330:
.LBE2329:
.LBE2328:
	.loc 13 650 26 view .LVU2964
	movs	r1, #11
.LBB2333:
.LBB2332:
.LBB2331:
	.loc 14 68 17 view .LVU2965
	uxth	r3, r3
	strh	r3, [r2]	@ movhi
.LVL753:
	.loc 14 68 17 view .LVU2966
.LBE2331:
.LBE2332:
.LBE2333:
	.loc 13 650 26 view .LVU2967
	strb	r1, [r5]
.LVL754:
.LBB2334:
.LBB2335:
.LBB2336:
	.loc 14 58 10 view .LVU2968
	ldrh	r3, [r2]
.LBE2336:
.LBE2335:
.LBE2334:
.LBB2339:
.LBB2340:
	.loc 6 362 14 view .LVU2969
	movs	r1, #1
.LBE2340:
.LBE2339:
.LBB2343:
.LBB2338:
.LBB2337:
	.loc 14 58 17 view .LVU2970
	add	r3, r3, r1
	uxth	r3, r3
	strh	r3, [r2]	@ movhi
.LVL755:
	.loc 14 58 17 view .LVU2971
.LBE2337:
.LBE2338:
.LBE2343:
.LBB2344:
.LBI2339:
	.loc 6 360 6 is_stmt 1 view .LVU2972
.LBB2341:
	.loc 6 362 3 view .LVU2973
.LBE2341:
.LBE2344:
	.loc 13 653 7 is_stmt 0 view .LVU2974
	ldrb	r2, [r5, #4]	@ zero_extendqisi2
.LBB2345:
.LBB2342:
	.loc 6 362 14 view .LVU2975
	strb	r1, [sp, #8]
	.loc 6 363 3 is_stmt 1 view .LVU2976
.LVL756:
	.loc 6 363 3 is_stmt 0 view .LVU2977
.LBE2342:
.LBE2345:
.LBB2346:
.LBI2346:
	.loc 23 1254 6 is_stmt 1 view .LVU2978
.LBB2347:
.LBB2348:
.LBB2349:
	.loc 25 282 27 is_stmt 0 view .LVU2979
	and	r3, r2, #127
	lsls	r3, r3, #5
	.loc 25 282 22 view .LVU2980
	add	r3, r3, #1090519040
.LBE2349:
.LBE2348:
.LBB2351:
.LBB2352:
	.loc 24 465 10 view .LVU2981
	and	r1, r2, #127
.LVL757:
	.loc 24 465 10 view .LVU2982
.LBE2352:
.LBE2351:
.LBB2353:
.LBI2348:
	.loc 25 277 6 is_stmt 1 view .LVU2983
.LBB2350:
	.loc 25 282 22 is_stmt 0 view .LVU2984
	add	r3, r3, #256
.LVL758:
	.loc 25 284 6 view .LVU2985
	lsrs	r2, r2, #7
.LVL759:
	.loc 25 285 25 view .LVU2986
	ite	ne
	movne	r0, #32
	.loc 25 287 25 view .LVU2987
	moveq	r0, #16
	strb	r0, [r3, #5]
.LVL760:
	.loc 25 287 25 view .LVU2988
.LBE2350:
.LBE2353:
	.loc 23 1260 43 view .LVU2989
	ldr	r3, .L958+8
	add	r3, r3, r1, lsl #1
	add	r3, r3, r2
	ldrb	r2, [r3, #37]	@ zero_extendqisi2
	orr	r2, r2, #2
	strb	r2, [r3, #37]
	.loc 23 1261 40 view .LVU2990
	ldrb	r2, [r3, #37]	@ zero_extendqisi2
	orr	r2, r2, #1
	strb	r2, [r3, #37]
	.loc 23 1262 1 view .LVU2991
	b	.L891
.LVL761:
.L955:
	.loc 23 1262 1 view .LVU2992
.LBE2347:
.LBE2346:
.LBE2327:
.LBB2354:
	.loc 13 600 7 view .LVU2993
	ldr	r3, .L958+4
.LVL762:
	.loc 13 600 7 view .LVU2994
	ldr	r2, [r3]
.LVL763:
.L847:
.LBB2215:
.LBB2216:
.LBB2217:
	.loc 14 67 17 view .LVU2995
	ldrh	r3, [r2]
	uxth	r3, r3
	.loc 14 67 9 view .LVU2996
	cmp	r3, #0
	beq	.L847
	.loc 14 68 10 view .LVU2997
	ldrh	r3, [r2]
	.loc 14 68 17 view .LVU2998
	subs	r3, r3, #1
.LBE2217:
.LBE2216:
.LBE2215:
	.loc 13 601 26 view .LVU2999
	movs	r4, #1
.LVL764:
.LBB2220:
.LBB2219:
.LBB2218:
	.loc 14 68 17 view .LVU3000
	uxth	r3, r3
	strh	r3, [r2]	@ movhi
.LVL765:
	.loc 14 68 17 view .LVU3001
.LBE2218:
.LBE2219:
.LBE2220:
	.loc 13 601 26 view .LVU3002
	strb	r4, [r5]
.LVL766:
.LBB2221:
.LBB2222:
.LBB2223:
	.loc 14 58 10 view .LVU3003
	ldrh	r3, [r2]
	.loc 14 58 17 view .LVU3004
	add	r3, r3, r4
	uxth	r3, r3
	strh	r3, [r2]	@ movhi
.LVL767:
	.loc 14 58 17 view .LVU3005
.LBE2223:
.LBE2222:
.LBE2221:
.LBB2224:
.LBI2224:
	.loc 6 376 6 is_stmt 1 view .LVU3006
.LBB2225:
	.loc 6 378 3 view .LVU3007
	bl	tud_usbtmc_start_bus_read.isra.0
.LVL768:
	.loc 6 378 3 is_stmt 0 view .LVU3008
.LBE2225:
.LBE2224:
	.loc 13 613 12 view .LVU3009
	mov	r0, r4
.LBB2227:
.LBB2226:
	.loc 6 379 1 view .LVU3010
	b	.L949
.LVL769:
.L877:
	.loc 6 379 1 view .LVU3011
.LBE2226:
.LBE2227:
.LBE2354:
.LBB2355:
	.loc 13 702 25 view .LVU3012
	movs	r3, #129
	strb	r3, [sp, #8]
	b	.L891
.L871:
	.loc 13 683 47 view .LVU3013
	ldrh	r3, [r4, #2]	@ unaligned
	.loc 13 683 56 view .LVU3014
	and	r3, r3, #127
	.loc 13 682 95 view .LVU3015
	cmp	r2, r3
	bne	.L872
	.loc 13 688 7 view .LVU3016
	ldr	r2, .L958+4
	.loc 13 685 25 view .LVU3017
	movs	r1, #1
	.loc 13 686 42 view .LVU3018
	movs	r3, #0
	.loc 13 688 7 view .LVU3019
	ldr	r2, [r2]
.LVL770:
	.loc 13 685 25 view .LVU3020
	strb	r1, [sp, #8]
	.loc 13 686 42 view .LVU3021
	str	r3, [r5, #136]
.L873:
.LBB2244:
.LBB2245:
.LBB2246:
	.loc 14 67 17 view .LVU3022
	ldrh	r3, [r2]
	uxth	r3, r3
	.loc 14 67 9 view .LVU3023
	cmp	r3, #0
	beq	.L873
	.loc 14 68 10 view .LVU3024
	ldrh	r3, [r2]
	.loc 14 68 17 view .LVU3025
	subs	r3, r3, #1
	uxth	r3, r3
	strh	r3, [r2]	@ movhi
.LVL771:
	.loc 14 68 17 view .LVU3026
.LBE2246:
.LBE2245:
.LBE2244:
	.loc 13 689 62 view .LVU3027
	ldr	r3, [r5, #140]
	.loc 13 690 38 view .LVU3028
	tst	r3, #63
	ite	eq
	moveq	r3, #8
	movne	r3, #9
	.loc 13 689 26 view .LVU3029
	strb	r3, [r5]
.LVL772:
.LBB2247:
.LBB2248:
.LBB2249:
	.loc 14 58 10 view .LVU3030
	ldrh	r3, [r2]
	.loc 14 58 17 view .LVU3031
	adds	r3, r3, #1
	uxth	r3, r3
	strh	r3, [r2]	@ movhi
.LVL773:
	.loc 14 58 17 view .LVU3032
.LBE2249:
.LBE2248:
.LBE2247:
	.loc 13 692 9 view .LVU3033
	ldr	r2, [r5, #140]
	cbnz	r2, .L875
	.loc 13 695 9 view .LVU3034
	ldr	r1, .L958+12
	ldrb	r0, [r5, #3]	@ zero_extendqisi2
	bl	usbd_edpt_xfer.isra.0
.LVL774:
	cmp	r0, #0
	beq	.L914
	.loc 13 696 28 view .LVU3035
	movs	r3, #9
	strb	r3, [r5]
.L875:
.LVL775:
.LBB2250:
.LBI2250:
	.loc 6 347 6 is_stmt 1 view .LVU3036
.LBB2251:
	.loc 6 349 3 view .LVU3037
	.loc 6 349 17 is_stmt 0 view .LVU3038
	ldr	r2, .L958+16
	movs	r1, #0
	.loc 6 350 14 view .LVU3039
	movs	r3, #1
	.loc 6 349 17 view .LVU3040
	str	r1, [r2]
	.loc 6 350 3 is_stmt 1 view .LVU3041
	.loc 6 350 14 is_stmt 0 view .LVU3042
	strb	r3, [sp, #8]
	.loc 6 351 3 is_stmt 1 view .LVU3043
.LVL776:
	.loc 6 351 3 is_stmt 0 view .LVU3044
.LBE2251:
.LBE2250:
	b	.L891
.LVL777:
.L890:
	.loc 6 351 3 view .LVU3045
.LBE2355:
.LBB2356:
.LBB2257:
.LBI2257:
	.loc 6 335 6 is_stmt 1 view .LVU3046
.LBB2258:
	.loc 6 337 3 view .LVU3047
	.loc 6 337 14 is_stmt 0 view .LVU3048
	ldr	r1, .L958+20
.LVL778:
	.loc 6 337 14 view .LVU3049
.LBE2258:
.LBE2257:
	.loc 13 782 9 view .LVU3050
	ldr	r2, .L958+4
.LBB2261:
.LBB2259:
	.loc 6 337 14 view .LVU3051
	strh	r3, [r1]	@ movhi
	.loc 6 338 3 is_stmt 1 view .LVU3052
	.loc 6 338 17 is_stmt 0 view .LVU3053
	ldr	r1, .L958+16
.LBE2259:
.LBE2261:
	.loc 13 782 9 view .LVU3054
	ldr	r2, [r2]
.LBB2262:
.LBB2260:
	.loc 6 338 17 view .LVU3055
	str	r3, [r1]
	.loc 6 339 3 is_stmt 1 view .LVU3056
	.loc 6 339 10 is_stmt 0 view .LVU3057
	ldr	r1, .L958+24
	strb	r3, [r1]
	.loc 6 340 3 is_stmt 1 view .LVU3058
	.loc 6 340 16 is_stmt 0 view .LVU3059
	ldr	r1, .L958+28
	str	r3, [r1]
	.loc 6 341 3 is_stmt 1 view .LVU3060
	.loc 6 341 17 is_stmt 0 view .LVU3061
	ldr	r1, .L958+32
	str	r3, [r1]
	.loc 6 342 3 is_stmt 1 view .LVU3062
	.loc 6 342 16 is_stmt 0 view .LVU3063
	ldr	r1, .L958+36
	str	r3, [r1]
	.loc 6 343 3 is_stmt 1 view .LVU3064
	.loc 6 343 22 is_stmt 0 view .LVU3065
	movs	r3, #1
	strb	r3, [sp, #8]
	.loc 6 344 3 is_stmt 1 view .LVU3066
	.loc 6 345 3 view .LVU3067
.LVL779:
.L892:
	.loc 6 345 3 is_stmt 0 view .LVU3068
.LBE2260:
.LBE2262:
.LBB2263:
.LBB2264:
.LBB2265:
	.loc 14 67 17 view .LVU3069
	ldrh	r3, [r2]
	uxth	r3, r3
	.loc 14 67 9 view .LVU3070
	cmp	r3, #0
	beq	.L892
	.loc 14 68 10 view .LVU3071
	ldrh	r3, [r2]
	.loc 14 68 17 view .LVU3072
	subs	r3, r3, #1
	uxth	r3, r3
.LBE2265:
.LBE2264:
.LBE2263:
	.loc 13 783 28 view .LVU3073
	movs	r1, #2
.LBB2268:
.LBB2267:
.LBB2266:
	.loc 14 68 17 view .LVU3074
	strh	r3, [r2]	@ movhi
.LVL780:
	.loc 14 68 17 view .LVU3075
.LBE2266:
.LBE2267:
.LBE2268:
	.loc 13 783 28 view .LVU3076
	strb	r1, [r5]
.LVL781:
.LBB2269:
.LBB2270:
.LBB2271:
.LBB2272:
	.loc 14 58 10 view .LVU3077
	ldrh	r3, [r2]
	.loc 14 58 17 view .LVU3078
	adds	r3, r3, #1
	uxth	r3, r3
	strh	r3, [r2]	@ movhi
.LVL782:
	.loc 14 58 17 view .LVU3079
.LBE2272:
.LBE2271:
	.loc 14 98 10 view .LVU3080
	b	.L891
.LVL783:
.L882:
	.loc 14 98 10 view .LVU3081
.LBE2270:
.LBE2269:
.LBE2356:
.LBB2357:
	.loc 13 736 25 view .LVU3082
	movs	r3, #2
	strb	r3, [sp, #8]
	.loc 13 737 7 view .LVU3083
	b	.L883
.L881:
	.loc 13 731 25 view .LVU3084
	movs	r2, #1
	.loc 13 732 26 view .LVU3085
	movs	r3, #2
	.loc 13 731 25 view .LVU3086
	strb	r2, [sp, #8]
	.loc 13 732 26 view .LVU3087
	strb	r3, [r5]
	.loc 13 733 7 view .LVU3088
	b	.L883
.LVL784:
.L894:
	.loc 13 733 7 view .LVU3089
.LBE2357:
.LBB2358:
.LBB2236:
.LBI2236:
	.loc 6 382 9 is_stmt 1 view .LVU3090
.LBB2237:
	.loc 6 384 3 view .LVU3091
	.loc 6 384 11 is_stmt 0 view .LVU3092
	ldr	r3, .L958+24
	ldrb	r1, [r3]	@ zero_extendqisi2
.LVL785:
	.loc 6 385 3 is_stmt 1 view .LVU3093
	.loc 6 385 12 is_stmt 0 view .LVU3094
	ldrb	r2, [r3]	@ zero_extendqisi2
.LVL786:
	.loc 6 385 12 view .LVU3095
.LBE2237:
.LBE2236:
	.loc 13 841 24 view .LVU3096
	strb	r1, [sp, #10]
.LBB2239:
.LBB2238:
	.loc 6 387 14 view .LVU3097
	movs	r0, #1
	.loc 6 385 12 view .LVU3098
	and	r2, r2, #191
	.loc 6 387 14 view .LVU3099
	strb	r0, [sp, #8]
	.loc 6 385 10 view .LVU3100
	strb	r2, [r3]
	.loc 6 387 3 is_stmt 1 view .LVU3101
	.loc 6 390 3 view .LVU3102
.LVL787:
	.loc 6 390 3 is_stmt 0 view .LVU3103
	b	.L895
.L959:
	.align	2
.L958:
	.word	.LANCHOR4
	.word	.LANCHOR7
	.word	.LANCHOR14
	.word	.LANCHOR4+8
	.word	.LANCHOR21
	.word	.LANCHOR22
	.word	.LANCHOR2
	.word	.LANCHOR23
	.word	.LANCHOR24
	.word	.LANCHOR25
.LBE2238:
.LBE2239:
.LBE2358:
.LBE2361:
.LBE2365:
	.cfi_endproc
.LFE338:
	.size	usbtmcd_control_xfer_cb, .-usbtmcd_control_xfer_cb
	.section	.rodata.SCPI_CoreIdnQ.str1.4,"aMS",%progbits,1
	.align	2
.LC20:
	.ascii	"0\000"
	.section	.text.SCPI_CoreIdnQ,"ax",%progbits
	.align	1
	.p2align 2,,3
	.syntax unified
	.thumb
	.thumb_func
	.fpu fpv4-sp-d16
	.type	SCPI_CoreIdnQ, %function
SCPI_CoreIdnQ:
.LVL788:
.LFB346:
	.loc 8 271 47 is_stmt 1 view -0
	.cfi_startproc
	@ args = 0, pretend = 0, frame = 0
	@ frame_needed = 0, uses_anonymous_args = 0
	.loc 8 272 5 view .LVU3105
	.loc 8 273 5 view .LVU3106
	.loc 8 273 17 view .LVU3107
	.loc 8 271 47 is_stmt 0 view .LVU3108
	push	{r4, r5, r6, r7, r8, lr}
	.cfi_def_cfa_offset 24
	.cfi_offset 4, -24
	.cfi_offset 5, -20
	.cfi_offset 6, -16
	.cfi_offset 7, -12
	.cfi_offset 8, -8
	.cfi_offset 14, -4
	.loc 8 277 13 view .LVU3109
	ldr	r8, .L966
	.loc 8 271 47 view .LVU3110
	mov	r6, r0
	add	r5, r0, #132
	add	r7, r0, #148
.LVL789:
.L963:
	.loc 8 274 9 is_stmt 1 view .LVU3111
	.loc 8 275 13 view .LVU3112
	.loc 8 274 25 is_stmt 0 view .LVU3113
	ldr	r4, [r5], #4
	.loc 8 275 13 view .LVU3114
	mov	r0, r4
	.loc 8 274 12 view .LVU3115
	cbz	r4, .L961
	.loc 8 275 13 view .LVU3116
	bl	strlen
.LVL790:
	mov	r1, r4
	mov	r2, r0
	mov	r0, r6
	bl	SCPI_ResultCharacters.isra.0
.LVL791:
.L962:
	.loc 8 273 24 is_stmt 1 discriminator 2 view .LVU3117
	.loc 8 273 17 discriminator 2 view .LVU3118
	.loc 8 273 5 is_stmt 0 discriminator 2 view .LVU3119
	cmp	r5, r7
	bne	.L963
	.loc 8 280 5 is_stmt 1 view .LVU3120
	.loc 8 281 1 is_stmt 0 view .LVU3121
	movs	r0, #1
	pop	{r4, r5, r6, r7, r8, pc}
.LVL792:
.L961:
	.loc 8 277 13 is_stmt 1 view .LVU3122
	movs	r2, #1
	mov	r1, r8
	mov	r0, r6
	bl	SCPI_ResultCharacters.isra.0
.LVL793:
	b	.L962
.L967:
	.align	2
.L966:
	.word	.LC20
	.cfi_endproc
.LFE346:
	.size	SCPI_CoreIdnQ, .-SCPI_CoreIdnQ
	.section	.rodata.SCPI_SystemErrorNextQ.str1.4,"aMS",%progbits,1
	.align	2
.LC21:
	.ascii	"\"\000"
	.section	.text.SCPI_SystemErrorNextQ,"ax",%progbits
	.align	1
	.p2align 2,,3
	.syntax unified
	.thumb
	.thumb_func
	.fpu fpv4-sp-d16
	.type	SCPI_SystemErrorNextQ, %function
SCPI_SystemErrorNextQ:
.LVL794:
.LFB347:
	.loc 12 81 55 view -0
	.cfi_startproc
	@ args = 0, pretend = 0, frame = 0
	@ frame_needed = 0, uses_anonymous_args = 0
	.loc 12 82 5 view .LVU3124
	.loc 12 83 5 view .LVU3125
.LBB2412:
.LBI2412:
	.loc 7 108 13 view .LVU3126
.LBE2412:
	.loc 12 81 55 is_stmt 0 view .LVU3127
	push	{r4, r5, r6, r7, r8, r9, r10, lr}
	.cfi_def_cfa_offset 32
	.cfi_offset 4, -32
	.cfi_offset 5, -28
	.cfi_offset 6, -24
	.cfi_offset 7, -20
	.cfi_offset 8, -16
	.cfi_offset 9, -12
	.cfi_offset 10, -8
	.cfi_offset 14, -4
	.loc 12 81 55 view .LVU3128
	movs	r4, #0
.LBB2434:
.LBB2413:
	.loc 7 109 16 view .LVU3129
	mov	r7, r0
	cmp	r0, #0
	beq	.L994
.LVL795:
.LBB2414:
.LBI2414:
	.loc 7 108 13 is_stmt 1 view .LVU3130
.LBB2415:
.LBB2416:
.LBI2416:
	.loc 9 99 13 view .LVU3131
.LBB2417:
.LBB2418:
.LBB2419:
	.loc 9 59 16 is_stmt 0 view .LVU3132
	ldrsh	r3, [r0, #64]
.LVL796:
	.loc 9 59 16 view .LVU3133
.LBE2419:
.LBE2418:
	.loc 9 101 8 view .LVU3134
	cmp	r3, #0
	beq	.L982
.LVL797:
.LBB2420:
.LBI2420:
	.loc 9 99 13 is_stmt 1 view .LVU3135
.LBB2421:
	.loc 9 106 33 is_stmt 0 view .LVU3136
	ldrsh	r1, [r0, #62]
	.loc 9 106 16 view .LVU3137
	ldr	r0, [r0, #68]
.LVL798:
	.loc 9 110 17 view .LVU3138
	subs	r3, r3, #1
	.loc 9 106 16 view .LVU3139
	ldrsh	r4, [r0, r1, lsl #1]
.LVL799:
	.loc 9 110 17 view .LVU3140
	strh	r3, [r7, #64]	@ movhi
	.loc 9 109 38 view .LVU3141
	ldrsh	r3, [r7, #66]
	.loc 9 109 26 view .LVU3142
	adds	r2, r1, #1
	.loc 9 109 31 view .LVU3143
	sdiv	r1, r2, r3
	mls	r2, r3, r1, r2
.LBE2421:
.LBE2420:
.LBE2417:
.LBE2416:
.LBE2415:
.LBE2414:
.LBE2413:
.LBE2434:
.LBB2435:
.LBB2436:
.LBB2437:
.LBB2438:
	.loc 11 442 12 view .LVU3144
	mov	r5, r4
.LBE2438:
.LBE2437:
.LBE2436:
.LBE2435:
.LBB2481:
.LBB2432:
.LBB2430:
.LBB2428:
.LBB2426:
.LBB2424:
.LBB2423:
.LBB2422:
	.loc 9 109 14 view .LVU3145
	strh	r2, [r7, #62]	@ movhi
.LVL800:
.L971:
	.loc 9 109 14 view .LVU3146
.LBE2422:
.LBE2423:
.LBE2424:
.LBE2426:
	.loc 7 113 5 view .LVU3147
	mov	r0, r7
	bl	SCPI_ErrorEmitEmpty
.LVL801:
.L970:
	.loc 7 113 5 view .LVU3148
.LBE2428:
.LBE2430:
.LBE2432:
.LBE2481:
	.loc 12 84 5 is_stmt 1 view .LVU3149
.LBB2482:
.LBI2435:
	.loc 11 543 8 view .LVU3150
.LBB2479:
	.loc 11 553 15 is_stmt 0 view .LVU3151
	mov	r0, r4
	bl	SCPI_ErrorTranslate
.LVL802:
	mov	r6, r0
.LVL803:
	.loc 11 554 14 view .LVU3152
	bl	strlen
.LVL804:
.LBB2442:
.LBB2439:
	.loc 11 442 12 view .LVU3153
	movs	r2, #1
	mov	r1, r5
.LBE2439:
.LBE2442:
	.loc 11 554 14 view .LVU3154
	mov	r10, r0
.LVL805:
.LBB2443:
.LBB2440:
	.loc 11 442 12 view .LVU3155
	mov	r0, r7
.LVL806:
	.loc 11 442 12 view .LVU3156
	bl	resultUInt32BaseSign.constprop.0.isra.0
.LVL807:
	.loc 11 442 12 view .LVU3157
.LBE2440:
.LBE2443:
.LBB2444:
.LBB2445:
	.loc 11 83 8 view .LVU3158
	ldr	r3, [r7, #48]
	cmp	r3, #0
	ble	.L972
.LVL808:
.LBB2446:
.LBI2446:
	.loc 11 82 15 is_stmt 1 view .LVU3159
.LBB2447:
.LBB2448:
.LBB2449:
.LBI2449:
	.loc 11 56 15 view .LVU3160
.LBB2450:
	.loc 11 58 34 is_stmt 0 view .LVU3161
	ldr	r3, [r7, #44]
	.loc 11 58 16 view .LVU3162
	ldr	r1, .L996
	ldr	r3, [r3, #4]
	movs	r2, #1
	mov	r0, r7
	blx	r3
.LVL809:
.L972:
	.loc 11 58 16 view .LVU3163
.LBE2450:
.LBE2449:
.LBE2448:
.LBE2447:
.LBE2446:
.LBE2445:
.LBE2444:
.LBB2451:
.LBB2452:
.LBI2452:
	.loc 11 56 15 is_stmt 1 view .LVU3164
.LBB2453:
	.loc 11 58 34 is_stmt 0 view .LVU3165
	ldr	r3, [r7, #44]
	.loc 11 58 16 view .LVU3166
	ldr	r1, .L996+4
	ldr	r3, [r3, #4]
.LBE2453:
.LBE2452:
.LBE2451:
.LBB2456:
.LBB2457:
.LBB2458:
	ldr	r9, .L996+4
	cmp	r10, #255
.LBE2458:
.LBE2457:
.LBE2456:
.LBB2461:
.LBB2455:
.LBB2454:
	mov	r2, #1
	mov	r0, r7
	it	cs
	movcs	r10, #255
.LVL810:
	.loc 11 58 16 view .LVU3167
	blx	r3
.LVL811:
	.loc 11 58 16 view .LVU3168
.LBE2454:
.LBE2455:
.LBE2461:
	.loc 11 545 12 view .LVU3169
	mov	r8, #255
.LVL812:
.L981:
.LBB2462:
.LBI2462:
	.loc 22 58 8 is_stmt 1 view .LVU3170
.LBB2463:
	.loc 22 59 5 view .LVU3171
	.loc 22 60 5 view .LVU3172
	.loc 22 61 5 view .LVU3173
	.loc 22 61 18 is_stmt 0 view .LVU3174
	add	r2, r6, r10
.LVL813:
	.loc 22 63 5 is_stmt 1 view .LVU3175
	.loc 22 63 11 view .LVU3176
	cmp	r6, r2
	beq	.L973
.LVL814:
	.loc 22 64 27 view .LVU3177
	.loc 22 65 13 view .LVU3178
	.loc 22 64 27 view .LVU3179
	.loc 22 63 11 is_stmt 0 view .LVU3180
	mov	r4, r6
	.loc 22 63 41 view .LVU3181
	mov	r5, r4
.LVL815:
	.loc 22 63 35 view .LVU3182
	ldrb	r3, [r5], #1	@ zero_extendqisi2
.LVL816:
	.loc 22 63 11 is_stmt 1 view .LVU3183
	.loc 22 63 28 is_stmt 0 view .LVU3184
	cbz	r3, .L973
.L977:
	.loc 22 65 16 view .LVU3185
	cmp	r3, #34
	beq	.L976
	.loc 22 63 11 view .LVU3186
	cmp	r2, r5
	beq	.L973
	.loc 22 63 11 view .LVU3187
	mov	r4, r5
.LVL817:
	.loc 22 64 27 is_stmt 1 view .LVU3188
	.loc 22 65 13 view .LVU3189
	.loc 22 64 27 view .LVU3190
	.loc 22 63 41 is_stmt 0 view .LVU3191
	mov	r5, r4
.LVL818:
	.loc 22 63 35 view .LVU3192
	ldrb	r3, [r5], #1	@ zero_extendqisi2
.LVL819:
	.loc 22 63 11 is_stmt 1 view .LVU3193
	.loc 22 63 28 is_stmt 0 view .LVU3194
	cmp	r3, #0
	bne	.L977
.LVL820:
.L973:
	.loc 22 63 28 view .LVU3195
.LBE2463:
.LBE2462:
.LBB2465:
.LBB2466:
	.loc 11 57 8 view .LVU3196
	cmp	r10, #0
	beq	.L978
.LVL821:
.LBB2467:
.LBI2467:
	.loc 11 56 15 is_stmt 1 view .LVU3197
.LBB2468:
	.loc 11 58 34 is_stmt 0 view .LVU3198
	ldr	r3, [r7, #44]
	.loc 11 58 16 view .LVU3199
	mov	r2, r10
	ldr	r3, [r3, #4]
	mov	r1, r6
	mov	r0, r7
	blx	r3
.LVL822:
.L978:
	.loc 11 58 16 view .LVU3200
.LBE2468:
.LBE2467:
.LBE2466:
.LBE2465:
.LBB2469:
.LBB2470:
.LBI2470:
	.loc 11 56 15 is_stmt 1 view .LVU3201
.LBB2471:
	.loc 11 58 34 is_stmt 0 view .LVU3202
	ldr	r3, [r7, #44]
	.loc 11 58 16 view .LVU3203
	ldr	r1, .L996+4
	ldr	r3, [r3, #4]
	movs	r2, #1
	mov	r0, r7
	blx	r3
.LVL823:
	.loc 11 58 16 view .LVU3204
.LBE2471:
.LBE2470:
.LBE2469:
.LBE2479:
.LBE2482:
	.loc 12 88 5 is_stmt 1 view .LVU3205
	.loc 12 89 1 is_stmt 0 view .LVU3206
	movs	r0, #1
	pop	{r4, r5, r6, r7, r8, r9, r10, pc}
.LVL824:
.L982:
.LBB2483:
.LBB2433:
.LBB2431:
.LBB2429:
.LBB2427:
.LBB2425:
	.loc 12 89 1 view .LVU3207
	mov	r5, r4
	b	.L971
.LVL825:
.L976:
	.loc 12 89 1 view .LVU3208
.LBE2425:
.LBE2427:
.LBE2429:
.LBE2431:
.LBE2433:
.LBE2483:
.LBB2484:
.LBB2480:
	.loc 11 579 31 view .LVU3209
	subs	r4, r4, r6
.LVL826:
	.loc 11 579 41 view .LVU3210
	adds	r4, r4, #1
.LVL827:
	.loc 11 579 16 view .LVU3211
	cmp	r4, r8
	bcs	.L995
.LVL828:
.LBB2472:
.LBB2473:
	.loc 11 57 8 view .LVU3212
	cbz	r4, .L974
.LVL829:
.LBB2474:
.LBI2474:
	.loc 11 56 15 is_stmt 1 view .LVU3213
.LBB2475:
	.loc 11 58 34 is_stmt 0 view .LVU3214
	ldr	r3, [r7, #44]
	.loc 11 58 16 view .LVU3215
	mov	r2, r4
	ldr	r3, [r3, #4]
	mov	r1, r6
	mov	r0, r7
	blx	r3
.LVL830:
.L974:
	.loc 11 58 16 view .LVU3216
.LBE2475:
.LBE2474:
.LBE2473:
.LBE2472:
.LBB2476:
.LBB2460:
.LBI2457:
	.loc 11 56 15 is_stmt 1 view .LVU3217
.LBB2459:
	.loc 11 58 34 is_stmt 0 view .LVU3218
	ldr	r3, [r7, #44]
	.loc 11 58 16 view .LVU3219
	movs	r2, #1
	ldr	r3, [r3, #4]
	mov	r1, r9
	mov	r0, r7
	blx	r3
.LVL831:
	.loc 11 58 16 view .LVU3220
.LBE2459:
.LBE2460:
.LBE2476:
	.loc 11 587 25 view .LVU3221
	mvns	r3, r4
	.loc 11 586 20 view .LVU3222
	sub	r10, r10, r4
.LVL832:
	.loc 11 587 25 view .LVU3223
	add	r8, r8, r3
.LVL833:
	.loc 11 587 25 view .LVU3224
	cmp	r10, r8
	it	cs
	movcs	r10, r8
.LVL834:
.LBB2477:
.LBB2464:
	.loc 22 63 41 view .LVU3225
	mov	r6, r5
	b	.L981
.LVL835:
.L995:
	.loc 22 63 41 view .LVU3226
.LBE2464:
.LBE2477:
	.loc 11 580 24 view .LVU3227
	add	r10, r10, #-1
.LVL836:
	.loc 11 582 17 view .LVU3228
	b	.L973
.LVL837:
.L994:
.LBB2478:
.LBB2441:
	.loc 11 442 12 view .LVU3229
	mov	r5, r0
	b	.L970
.L997:
	.align	2
.L996:
	.word	.LC17
	.word	.LC21
.LBE2441:
.LBE2478:
.LBE2480:
.LBE2484:
	.cfi_endproc
.LFE347:
	.size	SCPI_SystemErrorNextQ, .-SCPI_SystemErrorNextQ
	.section	.rodata.Reset_Handler.str1.4,"aMS",%progbits,1
	.align	2
.LC22:
	.ascii	"AdafruitIndustries\000"
	.align	2
.LC23:
	.ascii	"TinyLogicFriend\000"
	.align	2
.LC24:
	.ascii	"21-05\000"
	.align	2
.LC25:
	.ascii	"Metro_M4_Express\000"
	.section	.text.Reset_Handler,"ax",%progbits
	.align	1
	.p2align 2,,3
	.global	Reset_Handler
	.syntax unified
	.thumb
	.thumb_func
	.fpu fpv4-sp-d16
	.type	Reset_Handler, %function
Reset_Handler:
.LFB349:
	.loc 1 633 1 is_stmt 1 view -0
	.cfi_startproc
	@ Volatile: function does not return.
	@ args = 0, pretend = 0, frame = 48
	@ frame_needed = 0, uses_anonymous_args = 0
	.loc 1 634 2 view .LVU3231
	.loc 1 637 2 view .LVU3232
.LVL838:
	.loc 1 638 2 view .LVU3233
	.loc 1 640 2 view .LVU3234
	.loc 1 633 1 is_stmt 0 view .LVU3235
	push	{r7, fp, lr}
	.cfi_def_cfa_offset 12
	.cfi_offset 7, -12
	.cfi_offset 11, -8
	.cfi_offset 14, -4
	.loc 1 640 5 view .LVU3236
	ldr	r1, .L1395
	ldr	r0, .L1395+4
	cmp	r1, r0
	.loc 1 633 1 view .LVU3237
	sub	sp, sp, #52
	.cfi_def_cfa_offset 64
	.loc 1 640 5 view .LVU3238
	beq	.L1003
	.loc 1 641 10 is_stmt 1 view .LVU3239
	.loc 1 641 3 is_stmt 0 view .LVU3240
	ldr	r2, .L1395+8
	cmp	r0, r2
	bcs	.L1003
	.loc 1 642 13 view .LVU3241
	subs	r2, r2, #1
	subs	r2, r2, r0
	bic	r2, r2, #3
	adds	r2, r2, #4
	bl	memcpy
.LVL839:
.L1003:
	.loc 1 647 24 is_stmt 1 view .LVU3242
	.loc 1 647 2 is_stmt 0 view .LVU3243
	ldr	r0, .L1395+12
	ldr	r2, .L1395+16
	cmp	r0, r2
	bcs	.L1001
	.loc 1 648 12 view .LVU3244
	subs	r2, r2, #1
	subs	r2, r2, r0
	bic	r2, r2, #3
	adds	r2, r2, #4
	movs	r1, #0
	bl	memset
.LVL840:
.L1001:
	.loc 1 652 2 is_stmt 1 view .LVU3245
	.loc 1 653 2 view .LVU3246
	.loc 1 653 30 is_stmt 0 view .LVU3247
	ldr	r2, .L1395+20
	.loc 1 653 12 view .LVU3248
	ldr	r3, .L1395+24
	.loc 1 653 30 view .LVU3249
	bic	r2, r2, #127
	.loc 1 653 12 view .LVU3250
	str	r2, [r3, #8]
	.loc 1 657 2 is_stmt 1 view .LVU3251
	.loc 1 657 13 is_stmt 0 view .LVU3252
	ldr	r2, [r3, #136]
	orr	r2, r2, #15728640
	str	r2, [r3, #136]
	.loc 1 658 2 is_stmt 1 view .LVU3253
.LBB3150:
.LBI3150:
	.loc 16 751 53 view .LVU3254
.LBB3151:
	.loc 16 753 3 view .LVU3255
	.syntax unified
@ 753 "/Users/margaret/Github/tinylogicfriend/lib/tinyusb/hw/mcu/microchip/samd51/CMSIS/Include/cmsis_gcc.h" 1
	dsb 0xF
@ 0 "" 2
	.thumb
	.syntax unified
.LBE3151:
.LBE3150:
	.loc 1 659 2 view .LVU3256
.LBB3152:
.LBI3152:
	.loc 16 740 53 view .LVU3257
.LBB3153:
	.loc 16 742 3 view .LVU3258
	.syntax unified
@ 742 "/Users/margaret/Github/tinylogicfriend/lib/tinyusb/hw/mcu/microchip/samd51/CMSIS/Include/cmsis_gcc.h" 1
	isb 0xF
@ 0 "" 2
	.thumb
	.syntax unified
.LBE3153:
.LBE3152:
	.loc 1 666 2 view .LVU3259
.LBB3154:
.LBI3154:
	.loc 2 68 5 view .LVU3260
.LBB3155:
.LBB3156:
.LBI3156:
	.loc 3 69 6 view .LVU3261
.LBE3156:
.LBE3155:
.LBE3154:
	.loc 3 72 3 view .LVU3262
.LVL841:
.LBB4318:
.LBB4252:
.LBB3500:
.LBB3157:
.LBI3157:
	.file 29 "/Users/margaret/Github/tinylogicfriend/lib/tinyusb/hw/mcu/microchip/samd51/hri/hri_nvmctrl_d51.h"
	.loc 29 952 20 view .LVU3263
.LBB3158:
	.loc 29 954 34 view .LVU3264
	.loc 29 955 2 view .LVU3265
	.loc 29 955 29 is_stmt 0 view .LVU3266
	ldr	r0, .L1395+28
.LBE3158:
.LBE3157:
.LBB3161:
.LBB3162:
.LBB3163:
.LBB3164:
	.file 30 "/Users/margaret/Github/tinylogicfriend/lib/tinyusb/hw/mcu/microchip/samd51/hri/hri_osc32kctrl_d51.h"
	.loc 30 1127 6 view .LVU3267
	ldr	r2, .L1395+32
.LBE3164:
.LBE3163:
.LBE3162:
.LBE3161:
.LBB3178:
.LBB3159:
	.loc 29 955 29 view .LVU3268
	ldrh	r1, [r0]
.LBE3159:
.LBE3178:
.LBB3179:
.LBB3180:
.LBB3181:
	.file 31 "/Users/margaret/Github/tinylogicfriend/lib/tinyusb/hw/mcu/microchip/samd51/hri/hri_gclk_d51.h"
	.loc 31 493 35 view .LVU3269
	ldr	r3, .L1395+36
.LBE3181:
.LBE3180:
.LBE3179:
.LBB3198:
.LBB3160:
	.loc 29 955 29 view .LVU3270
	uxth	r1, r1
	strh	r1, [r0]	@ movhi
	.loc 29 956 34 is_stmt 1 view .LVU3271
.LVL842:
	.loc 29 956 34 is_stmt 0 view .LVU3272
.LBE3160:
.LBE3198:
.LBE3500:
.LBE4252:
.LBE4318:
	.loc 3 74 3 is_stmt 1 view .LVU3273
.LBB4319:
.LBB4253:
.LBB3501:
.LBB3199:
.LBI3161:
	.file 32 "/Users/margaret/Github/tinylogicfriend/lib/tinyusb/hw/mcu/microchip/samd51/hpl/osc32kctrl/hpl_osc32kctrl.c"
	.loc 32 50 6 view .LVU3274
.LBB3175:
	.loc 32 52 2 view .LVU3275
	.loc 32 53 2 view .LVU3276
	.loc 32 75 2 view .LVU3277
.LBB3166:
.LBI3163:
	.loc 30 1124 46 view .LVU3278
.LBB3165:
	.loc 30 1126 2 view .LVU3279
	.loc 30 1127 2 view .LVU3280
	.loc 30 1127 6 is_stmt 0 view .LVU3281
	ldr	r1, [r2, #28]
.LVL843:
	.loc 30 1128 2 is_stmt 1 view .LVU3282
	.loc 30 1129 2 view .LVU3283
	.loc 30 1129 2 is_stmt 0 view .LVU3284
.LBE3165:
.LBE3166:
	.loc 32 76 2 is_stmt 1 view .LVU3285
.LBE3175:
.LBE3199:
.LBB3200:
.LBB3201:
.LBB3202:
.LBB3203:
	.file 33 "/Users/margaret/Github/tinylogicfriend/lib/tinyusb/hw/mcu/microchip/samd51/hri/hri_mclk_d51.h"
	.loc 33 229 27 is_stmt 0 view .LVU3286
	ldr	r0, .L1395+40
.LBE3203:
.LBE3202:
.LBE3201:
.LBE3200:
.LBB3213:
.LBB3176:
	.loc 32 80 37 view .LVU3287
	and	r1, r1, #16128
.LVL844:
.LBB3167:
.LBI3167:
	.loc 30 1148 20 is_stmt 1 view .LVU3288
.LBB3168:
	.loc 30 1150 37 view .LVU3289
	.loc 30 1151 2 view .LVU3290
.LBE3168:
.LBE3167:
.LBB3170:
.LBB3171:
	.loc 30 276 34 is_stmt 0 view .LVU3291
	movs	r5, #0
.LBE3171:
.LBE3170:
.LBE3176:
.LBE3213:
.LBB3214:
.LBB3210:
.LBB3207:
.LBB3204:
	.loc 33 229 27 view .LVU3292
	movs	r4, #1
.LBE3204:
.LBE3207:
.LBE3210:
.LBE3214:
.LBB3215:
.LBB3177:
.LBB3173:
.LBB3169:
	.loc 30 1151 36 view .LVU3293
	str	r1, [r2, #28]
	.loc 30 1152 37 is_stmt 1 view .LVU3294
.LVL845:
	.loc 30 1152 37 is_stmt 0 view .LVU3295
.LBE3169:
.LBE3173:
	.loc 32 92 2 is_stmt 1 view .LVU3296
.LBB3174:
.LBI3170:
	.loc 30 273 20 view .LVU3297
.LBB3172:
	.loc 30 275 37 view .LVU3298
	.loc 30 276 2 view .LVU3299
	.loc 30 276 34 is_stmt 0 view .LVU3300
	strb	r5, [r2, #16]
	.loc 30 277 37 is_stmt 1 view .LVU3301
.LVL846:
	.loc 30 277 37 is_stmt 0 view .LVU3302
.LBE3172:
.LBE3174:
	.loc 32 93 2 is_stmt 1 view .LVU3303
.LBE3177:
.LBE3215:
.LBE3501:
.LBE4253:
.LBE4319:
	.loc 3 75 3 view .LVU3304
	.file 34 "/Users/margaret/Github/tinylogicfriend/lib/tinyusb/hw/mcu/microchip/samd51/hpl/oscctrl/hpl_oscctrl.c"
	.loc 34 54 2 view .LVU3305
	.loc 34 110 2 view .LVU3306
	.loc 3 76 3 view .LVU3307
.LBB4320:
.LBB4254:
.LBB3502:
.LBB3216:
.LBI3200:
	.file 35 "/Users/margaret/Github/tinylogicfriend/lib/tinyusb/hw/mcu/microchip/samd51/hpl/mclk/hpl_mclk.c"
	.loc 35 50 6 view .LVU3308
.LBB3211:
	.loc 35 52 2 view .LVU3309
	.loc 35 53 2 view .LVU3310
.LBB3208:
.LBI3202:
	.loc 33 226 20 view .LVU3311
.LBB3205:
	.loc 33 228 31 view .LVU3312
	.loc 33 229 2 view .LVU3313
.LBE3205:
.LBE3208:
.LBE3211:
.LBE3216:
.LBB3217:
.LBB3185:
.LBB3182:
	.loc 31 493 35 is_stmt 0 view .LVU3314
	ldr	r1, .L1395+44
.LBE3182:
.LBE3185:
.LBE3217:
.LBB3218:
.LBB3212:
.LBB3209:
.LBB3206:
	.loc 33 229 27 view .LVU3315
	strb	r4, [r0, #5]
	.loc 33 230 31 is_stmt 1 view .LVU3316
.LVL847:
	.loc 33 230 31 is_stmt 0 view .LVU3317
.LBE3206:
.LBE3209:
.LBE3212:
.LBE3218:
.LBE3502:
.LBE4254:
.LBE4320:
	.loc 3 78 3 is_stmt 1 view .LVU3318
.LBB4321:
.LBB4255:
.LBB3503:
.LBB3219:
.LBI3179:
	.file 36 "/Users/margaret/Github/tinylogicfriend/lib/tinyusb/hw/mcu/microchip/samd51/hpl/gclk/hpl_gclk.c"
	.loc 36 200 6 view .LVU3319
.LBE3219:
.LBE3503:
.LBE4255:
.LBE4321:
	.loc 36 203 2 view .LVU3320
	.loc 36 204 3 view .LVU3321
.LBB4322:
.LBB4256:
.LBB3504:
.LBB3220:
.LBB3186:
.LBI3180:
	.loc 31 490 20 view .LVU3322
.LBB3183:
	.loc 31 492 31 view .LVU3323
	.loc 31 493 2 view .LVU3324
.LBE3183:
.LBE3186:
.LBB3187:
.LBB3188:
	.loc 31 493 35 is_stmt 0 view .LVU3325
	ldr	r2, .L1395+48
.LBE3188:
.LBE3187:
.LBB3190:
.LBB3191:
	ldr	r0, .L1395+52
.LBE3191:
.LBE3190:
.LBB3193:
.LBB3184:
	str	r1, [r3, #32]
	.loc 31 494 31 is_stmt 1 view .LVU3326
.LVL848:
